(lp1
S'/teams/events/match_report/?EventGameId=KG1EImQE1RYYsEavAc6W%2fekYY%2b5DI1lEaTSyvG4lI8Q%3d'
p2
aS'/teams/events/match_report/?EventGameId=GVFnxhtaDJO0ll5x0RxNKutvfrvGK4xONVkzY%2bRPyxc%3d'
p3
aS'/teams/events/match_report/?EventGameId=Bz67FquyvePxpq2Mv4hyQx%2feOJ82t%2fdAaIIWI2ohqbs%3d'
p4
aS'/teams/events/match_report/?EventGameId=mckqzsSXgvTo5v7H%2b8qq8LXXnjMhImaXe8skmanKetY%3d'
p5
aS'/teams/events/match_report/?EventGameId=158zWswiO%2b%2bT5uwURssIaZWxk%2fwLGZ5y3WkqsWvq02o%3d'
p6
aS'/teams/events/match_report/?EventGameId=G14qi%2bRhTokt2ZVbbd2kiplSy3aOCg9MPlK3AtOqje4%3d'
p7
aS'/teams/events/match_report/?EventGameId=tW22%2b4DGxDoi856wHUm%2b4MwAcm6%2bKy7CE%2fpQODcuvlI%3d'
p8
aS'/teams/events/match_report/?EventGameId=%2boaZEHXPkU3LhXk7IQbztssouRIIjjeBFwiNRFlstls%3d'
p9
aS'/teams/events/match_report/?EventGameId=vN97e1zg2nnRoEeWnjRCO8BtQqvQNh8iqrF5xpHQFSg%3d'
p10
aS'/teams/events/match_report/?EventGameId=T8w7ODBOcWIVP0ZtWnQM%2fwZma87vSgcLbnCVNukJkC0%3d'
p11
aS'/teams/events/match_report/?EventGameId=k%2bOttU8ZYEoiHsCW44ZJD4YzzXtTKaMzl9gfP%2bws80s%3d'
p12
aS'/teams/events/match_report/?EventGameId=cyM%2b8CgGV0gMxsvXEIjarTMlTWbeMX7dZbILB5brpE8%3d'
p13
aS'/teams/events/match_report/?EventGameId=jhTHHVwo7ct%2buVZiJFKmtLLEmKyCwQXx3D5nye0jeGk%3d'
p14
aS'/teams/events/match_report/?EventGameId=oJxqFF6qSt5cTX5XSiJ2tMAfCVEFIrCMhjZm67luFW8%3d'
p15
aS'/teams/events/match_report/?EventGameId=qWyOwuks%2bFBiRnae6HvhwPpIP0iWIvWEXFLxdlrrFVE%3d'
p16
aS'/teams/events/match_report/?EventGameId=py3%2fJYcRbCIP3AY9gEgRDc6AdWvPTrBD7GfHTHaLbQI%3d'
p17
aS'/teams/events/match_report/?EventGameId=9dEjll4vNSrTjLVNQnWBToIl6ZXmldgh2sTK61s9Drk%3d'
p18
aS'/teams/events/match_report/?EventGameId=m5vmhWPHNlppiiygMjxaEO8wKd0QlQES4TMglOz5PIY%3d'
p19
aS'/teams/events/match_report/?EventGameId=rnQKIeOKxsAAy38278hLQwhyF2y3pCWPJvVN1eicsbM%3d'
p20
aS'/teams/events/match_report/?EventGameId=DR2xPDj2ZRe8S5KFsb5gW9UjYrjfWVdgXEXFQ29A0c8%3d'
p21
aS'/teams/events/match_report/?EventGameId=p0w4FSjpfNfQJplJQd2YzsbzNE6wSZU%2fxV0f3oF1XKY%3d'
p22
aS'/teams/events/match_report/?EventGameId=Oa16mJHgJABgqtyw8aVrPrZcnnvQORLh%2fSs%2brRC7PB4%3d'
p23
aS'/teams/events/match_report/?EventGameId=hVNOjEp33vckLYPmpLuyeJja6Wd4UvXpms%2f3C5ahZzE%3d'
p24
aS'/teams/events/match_report/?EventGameId=q8xGXSxs9664L9x9zWntFjgCr1ODbM5%2bCw4Ia6n%2byK4%3d'
p25
aS'/teams/events/match_report/?EventGameId=0a4oxoo0XTW2MD0SI4JM5e8pkJ79Ae3xdc5PghgtTF8%3d'
p26
aS'/teams/events/match_report/?EventGameId=Yc9nWG%2bQ3YFI8aDyBb3pPXGnZhQzRCFVKzSo13OpsN8%3d'
p27
aS'/teams/events/match_report/?EventGameId=VzuwHYCaRjP10dC1PXeiL5kajseK6YqKWs0iiHtu8fY%3d'
p28
aS'/teams/events/match_report/?EventGameId=RV2ybBA6JU2DrlDI24brW9jOse20Ky4UKbcfOmwNnkw%3d'
p29
aS'/teams/events/match_report/?EventGameId=pIghfS9QRg8hk9V6QQRebSBCiBWFtVDMUo1XpYdBy8o%3d'
p30
aS'/teams/events/match_report/?EventGameId=j8gGbG%2fGd1OxISETSGVAGnU5dO7gNozAjME0YTLugtE%3d'
p31
aS'/teams/events/match_report/?EventGameId=SxweWdkIATtDLyGmZEtGLRiERuntnOhi6qpmkcBVXL8%3d'
p32
aS'/teams/events/match_report/?EventGameId=QkjojaOBezSjxdMbD8cCde%2buWyN1OMC%2bu3gnciVlnKw%3d'
p33
aS'/teams/events/match_report/?EventGameId=uEr3fGSfzWOUxOh%2bEXyhJmzh%2bXS26fJskOR7RJkxmSI%3d'
p34
aS'/teams/events/match_report/?EventGameId=bTLgOuMS3cLXBs%2bw%2bd%2b1%2fuQRi6Ilnn7gABTkw2ouqOA%3d'
p35
aS'/teams/events/match_report/?EventGameId=ax%2bnMyKe8%2fOpsl%2bTfRThzrZBBlm052P%2bTJ5IZHTi2Ng%3d'
p36
aS'/teams/events/match_report/?EventGameId=w81dljN2Z466%2fW3rROUk%2fOBrTPRQbK4sIe0DesleF20%3d'
p37
aS'/teams/events/match_report/?EventGameId=RSubF1bj5BItSpHkC0NPBkwDCVngWiLLvLkdl1MbM1w%3d'
p38
aS'/teams/events/match_report/?EventGameId=LSej1qBlItnmaGSU6E%2fySQ6d%2fd%2fJU3pXZVzhczJuXjM%3d'
p39
aS'/teams/events/match_report/?EventGameId=JDJZD0p8WJm2ZFf9fe0xfo9J%2bNasoV9vMB2ilIsY4fk%3d'
p40
aS'/teams/events/match_report/?EventGameId=XUAQVtB32PmxLQ7tpdY4SnPru5EsCpDvP%2bEroyZUh%2b4%3d'
p41
aS'/teams/events/match_report/?EventGameId=Rsp3jUNLuENLvfkQYRCgOAq1Awa577lv%2fXG7lp6tc0Q%3d'
p42
aS'/teams/events/match_report/?EventGameId=W34FxmprEdLjnArIASdCrZWbWirMP6M9fEA0zfsG2IE%3d'
p43
aS'/teams/events/match_report/?EventGameId=HgCH%2ftU5dPnQ9sEK7eXV6vmkSrtXmIBqoy6%2bjeISZWs%3d'
p44
aS'/teams/events/match_report/?EventGameId=b4%2bMWBdwDtE1CaeAIzfnShzJq71JgXQPllqltWAw2j4%3d'
p45
aS'/teams/events/match_report/?EventGameId=MQRoMiOg4Rc7Ba9xqDxuOiCXG0OZhO8gsh75lpP5Elk%3d'
p46
aS'/teams/events/match_report/?EventGameId=uvmDdPJ53548I59yoVDDaX9USshsjcG5RXwKgfP5IXE%3d'
p47
aS'/teams/events/match_report/?EventGameId=%2fIkI7r3xJLMnGFo98i1W%2f%2b1sLmmDuwxW%2fPiSM%2fbUspU%3d'
p48
aS'/teams/events/match_report/?EventGameId=p3pixAyA195d2mbEX25se43uTYT8KBtQbbc9nullIKg%3d'
p49
aS'/teams/events/match_report/?EventGameId=epDOP2t7gFFlzGCusspgyF%2bfBZV3NrOHEqPXgABqswk%3d'
p50
aS'/teams/events/match_report/?EventGameId=jkTtveq232rU7rhlLya3M1tNVYDaAROFAUPWF%2bzyxMo%3d'
p51
aS'/teams/events/match_report/?EventGameId=g3bGoVu4nMKjDO0r6kQ4FWaoXvP9GhPvTNijUPmJ754%3d'
p52
aS'/teams/events/match_report/?EventGameId=OwSqKClFx3by13L0DKKtndQqUdOur0SXu3cx4YZpaV4%3d'
p53
aS'/teams/events/match_report/?EventGameId=ozDj6jI9cYsmT2Hi9EKj989v5qOd6Z6q9sdqoM9roYQ%3d'
p54
aS'/teams/events/match_report/?EventGameId=SJJWvzf7eY1a%2fL1FVPvQldOhNBA2qpwTQ2brqCkp71Y%3d'
p55
aS'/teams/events/match_report/?EventGameId=C0kiVw%2bttXuUC1QAtvmY2jlkizyDAnILgVtVJuaV8s8%3d'
p56
a.