(dp1
V#26 MATTHEW THIMAN
p2
ccopy_reg
_reconstructor
p3
(c__main__
Stats
p4
c__builtin__
object
p5
NtRp6
(dp7
S'name'
p8
g2
sS'turns'
p9
V00000
p10
sS'assists'
p11
V00000
p12
sS'goals'
p13
V00000
p14
sS'team'
p15
VHarvard (8)
p16
sS'ds'
p17
V00000
p18
sbsV#08 TYLER KUNSA
p19
g3
(g4
g5
NtRp20
(dp21
g8
g19
sg9
V00121
p22
sg11
V00200
p23
sg13
V11220
p24
sg15
VPittsburgh (2)
p25
sg17
V00000
p26
sbsV#83 RYAN DEL CASINO
p27
g3
(g4
g5
NtRp28
(dp29
g8
g27
sg9
V00000
p30
sg11
V00000
p31
sg13
V00000
p32
sg15
g25
sg17
V00000
p33
sbsV#23 SEF VAN KAN
p34
g3
(g4
g5
NtRp35
(dp36
g8
g34
sg9
V01130
p37
sg11
V51011
p38
sg13
V12012
p39
sg15
VCarleton College (16)
p40
sg17
V00200
p41
sbsV#94 Eamon Wick
p42
g3
(g4
g5
NtRp43
(dp44
g8
g42
sg9
V00000
p45
sg11
V00000
p46
sg13
V00000
p47
sg15
VTufts (15)
p48
sg17
V00000
p49
sbsV#17 IAN CAMPBELL
p50
g3
(g4
g5
NtRp51
(dp52
g8
g50
sg9
V200010
p53
sg11
V311110
p54
sg13
V102000
p55
sg15
VOregon (4)
p56
sg17
V100000
p57
sbsV#35 BRIAN MORRISON
p58
g3
(g4
g5
NtRp59
(dp60
g8
g58
sg9
V02001
p61
sg11
V00000
p62
sg13
V00001
p63
sg15
VRutgers (20)
p64
sg17
V00000
p65
sbsV#12 DANIEL HARRIS
p66
g3
(g4
g5
NtRp67
(dp68
g8
g66
sg9
V31051
p69
sg11
V22333
p70
sg13
V10200
p71
sg15
VDartmouth (18)
p72
sg17
V00100
p73
sbsV#55 JOHNNY BANSFIELD
p74
g3
(g4
g5
NtRp75
(dp76
g8
g74
sg9
V46807
p77
sg11
V55340
p78
sg13
V20113
p79
sg15
VEastern Michigan (17)
p80
sg17
V12000
p81
sbsV#13 MATTHEW TERZA
p82
g3
(g4
g5
NtRp83
(dp84
g8
g82
sg9
V10000
p85
sg11
V02001
p86
sg13
V02000
p87
sg15
VFlorida (9)
p88
sg17
V10000
p89
sbsV#23 JAMES ZURAW
p90
g3
(g4
g5
NtRp91
(dp92
g8
g90
sg9
V0001211
p93
sg11
V2101101
p94
sg13
V2001001
p95
sg15
VNorth Carolina (6)
p96
sg17
V0001010
p97
sbsV#11 JOHNATHON DAVIS
p98
g3
(g4
g5
NtRp99
(dp100
g8
g98
sg9
V20101
p101
sg11
V10002
p102
sg13
V01100
p103
sg15
g16
sg17
V00000
p104
sbsV#88 SEAN STRATTON
p105
g3
(g4
g5
NtRp106
(dp107
g8
g105
sg9
V00001
p108
sg11
V00000
p109
sg13
V00000
p110
sg15
g64
sg17
V01000
p111
sbsV#61 MATTHEW WEINTRAUB
p112
g3
(g4
g5
NtRp113
(dp114
g8
g112
sg9
V27302
p115
sg11
V21301
p116
sg13
V10000
p117
sg15
g64
sg17
V10000
p118
sbsV#33 AUSTIN MCGRAYNE
p119
g3
(g4
g5
NtRp120
(dp121
g8
g119
sg9
V0011100
p122
sg11
V0010000
p123
sg13
V1011002
p124
sg15
VNorth Carolina-Wilmington (5)
p125
sg17
V0011200
p126
sbsV#19 SCOTT DICKSON
p127
g3
(g4
g5
NtRp128
(dp129
g8
g127
sg9
V00010
p130
sg11
V00010
p131
sg13
V00000
p132
sg15
g80
sg17
V00000
p133
sbsV#21 MANIT MUNSHI
p134
g3
(g4
g5
NtRp135
(dp136
g8
g134
sg9
V00001
p137
sg11
V00101
p138
sg13
V00302
p139
sg15
VMassachusetts (19)
p140
sg17
V00100
p141
sbsV#11 ZACHARY GOULSON
p142
g3
(g4
g5
NtRp143
(dp144
g8
g142
sg9
V000000
p145
sg11
V300001
p146
sg13
V101100
p147
sg15
VMichigan (11)
p148
sg17
V000100
p149
sbsV#20 JACK BARROW
p150
g3
(g4
g5
NtRp151
(dp152
g8
g150
sg9
V0002000
p153
sg11
V0010100
p154
sg13
V2021010
p155
sg15
VColorado (1)
p156
sg17
V0000000
p157
sbsV#33 ELLIOT JERRY
p158
g3
(g4
g5
NtRp159
(dp160
g8
g158
sg9
V04000
p161
sg11
V00000
p162
sg13
V01000
p163
sg15
g140
sg17
V00000
p164
sbsV#19 WILLIAM DEAN
p165
g3
(g4
g5
NtRp166
(dp167
g8
g165
sg9
V20100
p168
sg11
V02120
p169
sg13
V10113
p170
sg15
g16
sg17
V01021
p171
sbsV#55 TREVOR PURDY
p172
g3
(g4
g5
NtRp173
(dp174
g8
g172
sg9
V00102
p175
sg11
V22201
p176
sg13
V31301
p177
sg15
VCalifornia-San Diego (13)
p178
sg17
V00100
p179
sbsV#37 JAN SZMANDA
p180
g3
(g4
g5
NtRp181
(dp182
g8
g180
sg9
V300021
p183
sg11
V101101
p184
sg13
V000010
p185
sg15
VWisconsin (12)
p186
sg17
V000000
p187
sbsV#05 MICHAEL FAIRLEY
p188
g3
(g4
g5
NtRp189
(dp190
g8
g188
sg9
V10010
p191
sg11
V10001
p192
sg13
V43134
p193
sg15
VCentral Florida (14)
p194
sg17
V01001
p195
sbsV#50 NICK PETRU
p196
g3
(g4
g5
NtRp197
(dp198
g8
g196
sg9
V00300
p199
sg11
V10023
p200
sg13
V01001
p201
sg15
g40
sg17
V01100
p202
sbsV#24 ADAM REES
p203
g3
(g4
g5
NtRp204
(dp205
g8
g203
sg9
V002000
p206
sg11
V000101
p207
sg13
V000200
p208
sg15
g56
sg17
V001110
p209
sbsV#10 WESLEY JOHNSON
p210
g3
(g4
g5
NtRp211
(dp212
g8
g210
sg9
V01000
p213
sg11
V00000
p214
sg13
V02000
p215
sg15
g140
sg17
V00000
p216
sbsV#00 MARK RAULS
p217
g3
(g4
g5
NtRp218
(dp219
g8
g217
sg9
V1000201
p220
sg11
V1111201
p221
sg13
V1013214
p222
sg15
g156
sg17
V0020100
p223
sbsV#92 JOSEPH CARRARA
p224
g3
(g4
g5
NtRp225
(dp226
g8
g224
sg9
V0000000
p227
sg11
V0000100
p228
sg13
V1001000
p229
sg15
g156
sg17
V0000000
p230
sbsV#09 PETER GLEASON
p231
g3
(g4
g5
NtRp232
(dp233
g8
g231
sg9
V0001100
p234
sg11
V2010011
p235
sg13
V0000000
p236
sg15
g156
sg17
V0000000
p237
sbsV#20 NATHANIEL GRANT
p238
g3
(g4
g5
NtRp239
(dp240
g8
g238
sg9
V00010
p241
sg11
V00000
p242
sg13
V00000
p243
sg15
g40
sg17
V00001
p244
sbsV#17 TRISTAN VOSS
p245
g3
(g4
g5
NtRp246
(dp247
g8
g245
sg9
V0000011
p248
sg11
V1010210
p249
sg13
V1000000
p250
sg15
g156
sg17
V0000010
p251
sbsV#17 CURTIS WANG
p252
g3
(g4
g5
NtRp253
(dp254
g8
g252
sg9
V00000
p255
sg11
V00000
p256
sg13
V00000
p257
sg15
g64
sg17
V00000
p258
sbsV#12 TIM MORRISSY
p259
g3
(g4
g5
NtRp260
(dp261
g8
g259
sg9
V1021000
p262
sg11
V2111001
p263
sg13
V1131014
p264
sg15
g156
sg17
V0001000
p265
sbsV#77 Dillon Tranquillo
p266
g3
(g4
g5
NtRp267
(dp268
g8
g266
sg9
V00000
p269
sg11
V00000
p270
sg13
V00100
p271
sg15
g25
sg17
V00000
p272
sbsV#07 JESSE BOLTON
p273
g3
(g4
g5
NtRp274
(dp275
g8
g273
sg9
V13000
p276
sg11
V01021
p277
sg13
V00012
p278
sg15
g40
sg17
V01000
p279
sbsV#12 CHRIS WILEN
p280
g3
(g4
g5
NtRp281
(dp282
g8
g280
sg9
V100000
p283
sg11
V000000
p284
sg13
V000001
p285
sg15
g186
sg17
V000011
p286
sbsV#76 BEN REHMANN
p287
g3
(g4
g5
NtRp288
(dp289
g8
g287
sg9
V002401
p290
sg11
V012322
p291
sg13
V001011
p292
sg15
g186
sg17
V000000
p293
sbsV#13 SEAN WILKINSON
p294
g3
(g4
g5
NtRp295
(dp296
g8
g294
sg9
V11000
p297
sg11
V20100
p298
sg13
V00100
p299
sg15
g178
sg17
V10000
p300
sbsV#08 TREY TALIAFERRO
p301
g3
(g4
g5
NtRp302
(dp303
g8
g301
sg9
V00020
p304
sg11
V00000
p305
sg13
V00030
p306
sg15
g80
sg17
V00000
p307
sbsV#03 PATRICK EARLES
p308
g3
(g4
g5
NtRp309
(dp310
g8
g308
sg9
V00220
p311
sg11
V44316
p312
sg13
V13132
p313
sg15
g25
sg17
V00110
p314
sbsV#04 TYLER CHAN
p315
g3
(g4
g5
NtRp316
(dp317
g8
g315
sg9
V01223
p318
sg11
V00242
p319
sg13
V12422
p320
sg15
g48
sg17
V00410
p321
sbsV#17 ALEXANDER TRAUTMAN
p322
g3
(g4
g5
NtRp323
(dp324
g8
g322
sg9
V00000
p325
sg11
V01010
p326
sg13
V01120
p327
sg15
g40
sg17
V02101
p328
sbsV#72 DAN CALABRESE
p329
g3
(g4
g5
NtRp330
(dp331
g8
g329
sg9
V000000
p332
sg11
V000000
p333
sg13
V000010
p334
sg15
g148
sg17
V000000
p335
sbsV#35 ANDREW HALPIN
p336
g3
(g4
g5
NtRp337
(dp338
g8
g336
sg9
V001000
p339
sg11
V000110
p340
sg13
V000001
p341
sg15
g56
sg17
V001000
p342
sbsV#42 MARCUS RANII-DROPCHO
p343
g3
(g4
g5
NtRp344
(dp345
g8
g343
sg9
V10222
p346
sg11
V44120
p347
sg13
V14103
p348
sg15
g25
sg17
V00100
p349
sbsV#15 MARIO BUNDY
p350
g3
(g4
g5
NtRp351
(dp352
g8
g350
sg9
V000000
p353
sg11
V000000
p354
sg13
V000000
p355
sg15
g56
sg17
V000010
p356
sbsV#10 DYLAN GULLY
p357
g3
(g4
g5
NtRp358
(dp359
g8
g357
sg9
V00000
p360
sg11
V00000
p361
sg13
V00000
p362
sg15
g48
sg17
V00000
p363
sbsV#25 JACOB GALLAGHER
p364
g3
(g4
g5
NtRp365
(dp366
g8
g364
sg9
V0100010
p367
sg11
V0000000
p368
sg13
V0001010
p369
sg15
g125
sg17
V0000000
p370
sbsV#15 CALEB LADUE
p371
g3
(g4
g5
NtRp372
(dp373
g8
g371
sg9
V00000
p374
sg11
V00002
p375
sg13
V00000
p376
sg15
g72
sg17
V00000
p377
sbsV#23 ZACHARY WU
p378
g3
(g4
g5
NtRp379
(dp380
g8
g378
sg9
V00000
p381
sg11
V00000
p382
sg13
V10000
p383
sg15
g178
sg17
V00000
p384
sbsV#07 GERBEN SCHERPBIER
p385
g3
(g4
g5
NtRp386
(dp387
g8
g385
sg9
V00100
p388
sg11
V00000
p389
sg13
V00000
p390
sg15
g72
sg17
V00000
p391
sbsV#35 DANIEL MERCER
p392
g3
(g4
g5
NtRp393
(dp394
g8
g392
sg9
V0000000
p395
sg11
V0000000
p396
sg13
V0000010
p397
sg15
g125
sg17
V0000000
p398
sbsV#88 JACK SLEVIN
p399
g3
(g4
g5
NtRp400
(dp401
g8
g399
sg9
V111001
p402
sg11
V112000
p403
sg13
V100200
p404
sg15
g56
sg17
V000000
p405
sbsV#11 CHRISTOPHER  STRUB
p406
g3
(g4
g5
NtRp407
(dp408
g8
g406
sg9
V112000
p409
sg11
V010011
p410
sg13
V010000
p411
sg15
g56
sg17
V000100
p412
sbsV#09 ERIC SHAW
p413
g3
(g4
g5
NtRp414
(dp415
g8
g413
sg9
V12114
p416
sg11
V15331
p417
sg13
V21111
p418
sg15
g48
sg17
V10011
p419
sbsV#13 DALTON SMITH
p420
g3
(g4
g5
NtRp421
(dp422
g8
g420
sg9
V00000
p423
sg11
V20020
p424
sg13
V00000
p425
sg15
VTexas A&M (7)
p426
sg17
V00000
p427
sbsV#03 TERENCE MURPHY
p428
g3
(g4
g5
NtRp429
(dp430
g8
g428
sg9
V30100
p431
sg11
V00000
p432
sg13
V00100
p433
sg15
g194
sg17
V00000
p434
sbsV#10 ALISTAIR MCINTYRE
p435
g3
(g4
g5
NtRp436
(dp437
g8
g435
sg9
V00000
p438
sg11
V20000
p439
sg13
V00000
p440
sg15
g178
sg17
V00000
p441
sbsV#30 ANDREW MCKELVEY
p442
g3
(g4
g5
NtRp443
(dp444
g8
g442
sg9
V00101
p445
sg11
V00110
p446
sg13
V30321
p447
sg15
g194
sg17
V00000
p448
sbsV#12 JAMES ADAMS
p449
g3
(g4
g5
NtRp450
(dp451
g8
g449
sg9
V00000
p452
sg11
V00000
p453
sg13
V00000
p454
sg15
g40
sg17
V00000
p455
sbsV#01 NICK ADOLPH
p456
g3
(g4
g5
NtRp457
(dp458
g8
g456
sg9
V01130
p459
sg11
V10001
p460
sg13
V00010
p461
sg15
g48
sg17
V01010
p462
sbsV#15 KEVIN NORTON
p463
g3
(g4
g5
NtRp464
(dp465
g8
g463
sg9
V22102
p466
sg11
V10202
p467
sg13
V40101
p468
sg15
g140
sg17
V10100
p469
sbsV#25 JEREMY LANGDON
p470
g3
(g4
g5
NtRp471
(dp472
g8
g470
sg9
V31123
p473
sg11
V14041
p474
sg13
V22131
p475
sg15
g194
sg17
V10021
p476
sbsV#30 JUSTIN LAMARCHE
p477
g3
(g4
g5
NtRp478
(dp479
g8
g477
sg9
V10000
p480
sg11
V10000
p481
sg13
V01200
p482
sg15
g64
sg17
V00000
p483
sbsV#19 JONATHAN CLUTTON
p484
g3
(g4
g5
NtRp485
(dp486
g8
g484
sg9
V100100
p487
sg11
V010000
p488
sg13
V111100
p489
sg15
VTexas (3)
p490
sg17
V010110
p491
sbsV#50 DREW RASMUSSEN
p492
g3
(g4
g5
NtRp493
(dp494
g8
g492
sg9
V13101
p495
sg11
V00100
p496
sg13
V02101
p497
sg15
g64
sg17
V30201
p498
sbsV#18 Gabriel Lucas
p499
g3
(g4
g5
NtRp500
(dp501
g8
g499
sg9
V00000
p502
sg11
V00001
p503
sg13
V00001
p504
sg15
g88
sg17
V00000
p505
sbsV#43 MICHAEL ROBERTS
p506
g3
(g4
g5
NtRp507
(dp508
g8
g506
sg9
V000010
p509
sg11
V000001
p510
sg13
V000000
p511
sg15
g148
sg17
V000000
p512
sbsV#27 AUSTIN MERCADANTE
p513
g3
(g4
g5
NtRp514
(dp515
g8
g513
sg9
V00001
p516
sg11
V00000
p517
sg13
V10100
p518
sg15
g194
sg17
V00010
p519
sbsV#27 KEVIN WANG
p520
g3
(g4
g5
NtRp521
(dp522
g8
g520
sg9
V00000
p523
sg11
V00000
p524
sg13
V00000
p525
sg15
g64
sg17
V00000
p526
sbsV#02 SPENCER DIAMOND
p527
g3
(g4
g5
NtRp528
(dp529
g8
g527
sg9
V01223
p530
sg11
V33222
p531
sg13
V21422
p532
sg15
g72
sg17
V00201
p533
sbsV#19 SAM LOVELAND
p534
g3
(g4
g5
NtRp535
(dp536
g8
g534
sg9
V001010
p537
sg11
V300020
p538
sg13
V221012
p539
sg15
g186
sg17
V000000
p540
sbsV#21 GABE FRUCHTER
p541
g3
(g4
g5
NtRp542
(dp543
g8
g541
sg9
V011000
p544
sg11
V002001
p545
sg13
V032010
p546
sg15
g56
sg17
V020010
p547
sbsV#01 CHARLIE LIAN
p548
g3
(g4
g5
NtRp549
(dp550
g8
g548
sg9
V0010211
p551
sg11
V0011011
p552
sg13
V1001000
p553
sg15
g125
sg17
V0000001
p554
sbsV#04 Erik Esposto
p555
g3
(g4
g5
NtRp556
(dp557
g8
g555
sg9
V0000000
p558
sg11
V0000000
p559
sg13
V1342004
p560
sg15
g125
sg17
V0000001
p561
sbsV#13 SCOTTY BOHRER
p562
g3
(g4
g5
NtRp563
(dp564
g8
g562
sg9
V00000
p565
sg11
V00000
p566
sg13
V00010
p567
sg15
VFlorida State (10)
p568
sg17
V00000
p569
sbsV#10 MAX THORNE
p570
g3
(g4
g5
NtRp571
(dp572
g8
g570
sg9
V10021
p573
sg11
V15445
p574
sg13
V32115
p575
sg15
g25
sg17
V00021
p576
sbsV#10 LUKE HANCOCK
p577
g3
(g4
g5
NtRp578
(dp579
g8
g577
sg9
V0330122
p580
sg11
V5640271
p581
sg13
V0000000
p582
sg15
g125
sg17
V0100000
p583
sbsV#90 ZACHARY MARKS
p584
g3
(g4
g5
NtRp585
(dp586
g8
g584
sg9
V00000
p587
sg11
V00000
p588
sg13
V00000
p589
sg15
g194
sg17
V00000
p590
sbsV#08 CHENTE ORTIZ
p591
g3
(g4
g5
NtRp592
(dp593
g8
g591
sg9
V01000
p594
sg11
V00000
p595
sg13
V00000
p596
sg15
g568
sg17
V00000
p597
sbsV#40 JAMES LINSCHEID
p598
g3
(g4
g5
NtRp599
(dp600
g8
g598
sg9
V00000
p601
sg11
V00000
p602
sg13
V10100
p603
sg15
g178
sg17
V20000
p604
sbsV#16 JACOB NOEL
p605
g3
(g4
g5
NtRp606
(dp607
g8
g605
sg9
V00000
p608
sg11
V00000
p609
sg13
V00000
p610
sg15
g80
sg17
V00000
p611
sbsV#17 SEAN HOWE
p612
g3
(g4
g5
NtRp613
(dp614
g8
g612
sg9
V00000
p615
sg11
V01000
p616
sg13
V00111
p617
sg15
g72
sg17
V01000
p618
sbsV#13 MICHAEL  ADERHOLD
p619
g3
(g4
g5
NtRp620
(dp621
g8
g619
sg9
V00000
p622
sg11
V00000
p623
sg13
V00000
p624
sg15
g16
sg17
V00000
p625
sbsV#11 STERLING KNOCHE
p626
g3
(g4
g5
NtRp627
(dp628
g8
g626
sg9
V000100
p629
sg11
V001020
p630
sg13
V001110
p631
sg15
g186
sg17
V003110
p632
sbsV#02 ROBERT PATTERSON
p633
g3
(g4
g5
NtRp634
(dp635
g8
g633
sg9
V00000
p636
sg11
V00000
p637
sg13
V00001
p638
sg15
g568
sg17
V00000
p639
sbsV#31 GARRETT CHAPPELL
p640
g3
(g4
g5
NtRp641
(dp642
g8
g640
sg9
V200010
p643
sg11
V000100
p644
sg13
V010010
p645
sg15
g56
sg17
V000020
p646
sbsV#27 THEODORE OWENS
p647
g3
(g4
g5
NtRp648
(dp649
g8
g647
sg9
V00000
p650
sg11
V00100
p651
sg13
V00010
p652
sg15
g72
sg17
V00000
p653
sbsV#88 SCOTT MOORE
p654
g3
(g4
g5
NtRp655
(dp656
g8
g654
sg9
V00000
p657
sg11
V00000
p658
sg13
V00000
p659
sg15
g568
sg17
V00000
p660
sbsV#25 WILLIAM WONG
p661
g3
(g4
g5
NtRp662
(dp663
g8
g661
sg9
V10011
p664
sg11
V01213
p665
sg13
V00003
p666
sg15
g48
sg17
V00000
p667
sbsV#11 DILLON LARBERG
p668
g3
(g4
g5
NtRp669
(dp670
g8
g668
sg9
V202100
p671
sg11
V110010
p672
sg13
V101010
p673
sg15
g490
sg17
V401111
p674
sbsV#43 JOSUE ALORRO
p675
g3
(g4
g5
NtRp676
(dp677
g8
g675
sg9
V21203
p678
sg11
V01005
p679
sg13
V00000
p680
sg15
g64
sg17
V01001
p681
sbsV#07 JACKSON TAMBOR
p682
g3
(g4
g5
NtRp683
(dp684
g8
g682
sg9
V0000002
p685
sg11
V0000000
p686
sg13
V0100000
p687
sg15
g96
sg17
V0100000
p688
sbsV#08 MICHAEL GOODGAME
p689
g3
(g4
g5
NtRp690
(dp691
g8
g689
sg9
V00000
p692
sg11
V00000
p693
sg13
V00000
p694
sg15
g40
sg17
V00000
p695
sbsV#71 JONAH HAHN
p696
g3
(g4
g5
NtRp697
(dp698
g8
g696
sg9
V00000
p699
sg11
V00000
p700
sg13
V00000
p701
sg15
g16
sg17
V00000
p702
sbsV#06 JIBRAN MIESER
p703
g3
(g4
g5
NtRp704
(dp705
g8
g703
sg9
V23304
p706
sg11
V00201
p707
sg13
V41105
p708
sg15
g64
sg17
V01201
p709
sbsV#57 AUSTIN REIF
p710
g3
(g4
g5
NtRp711
(dp712
g8
g710
sg9
V300000
p713
sg11
V000000
p714
sg13
V100000
p715
sg15
g186
sg17
V000000
p716
sbsV#03 NICHOLAS  ROBERTS
p717
g3
(g4
g5
NtRp718
(dp719
g8
g717
sg9
V00010
p720
sg11
V00300
p721
sg13
V00100
p722
sg15
g48
sg17
V00011
p723
sbsV#47 ALEC ZABRECKY
p724
g3
(g4
g5
NtRp725
(dp726
g8
g724
sg9
V00000
p727
sg11
V00000
p728
sg13
V00000
p729
sg15
g140
sg17
V00000
p730
sbsV#14 Brendan Winnacott
p731
g3
(g4
g5
NtRp732
(dp733
g8
g731
sg9
V00000
p734
sg11
V00000
p735
sg13
V10000
p736
sg15
g178
sg17
V10000
p737
sbsV#44 NICHOLAS SMITH
p738
g3
(g4
g5
NtRp739
(dp740
g8
g738
sg9
V22203
p741
sg11
V22400
p742
sg13
V10100
p743
sg15
g178
sg17
V00100
p744
sbsV#41 Ben Kumler
p745
g3
(g4
g5
NtRp746
(dp747
g8
g745
sg9
V00000
p748
sg11
V00000
p749
sg13
V00000
p750
sg15
g178
sg17
V00000
p751
sbsV#04 CHRISTOPHER MANGOGNA
p752
g3
(g4
g5
NtRp753
(dp754
g8
g752
sg9
V00000
p755
sg11
V00000
p756
sg13
V00000
p757
sg15
g25
sg17
V00000
p758
sbsV#16 ZACH WERNICK
p759
g3
(g4
g5
NtRp760
(dp761
g8
g759
sg9
V00000
p762
sg11
V00000
p763
sg13
V00000
p764
sg15
g568
sg17
V00000
p765
sbsV#06 ARTHUR HERLITZKA
p766
g3
(g4
g5
NtRp767
(dp768
g8
g766
sg9
V000000
p769
sg11
V100000
p770
sg13
V111001
p771
sg15
g186
sg17
V100000
p772
sbsV#70 JAKE MOYER
p773
g3
(g4
g5
NtRp774
(dp775
g8
g773
sg9
V000000
p776
sg11
V000010
p777
sg13
V000000
p778
sg15
g148
sg17
V000000
p779
sbsV#30 WYNN TUCKER
p780
g3
(g4
g5
NtRp781
(dp782
g8
g780
sg9
V10001
p783
sg11
V00010
p784
sg13
V00110
p785
sg15
g16
sg17
V21010
p786
sbsV#11 CONOR KLINE
p787
g3
(g4
g5
NtRp788
(dp789
g8
g787
sg9
V20001
p790
sg11
V10100
p791
sg13
V30002
p792
sg15
g140
sg17
V10001
p793
sbsV#25 Kedar Pujara
p794
g3
(g4
g5
NtRp795
(dp796
g8
g794
sg9
V00000
p797
sg11
V00000
p798
sg13
V00000
p799
sg15
g178
sg17
V00000
p800
sbsV#10 SAM HILLS
p801
g3
(g4
g5
NtRp802
(dp803
g8
g801
sg9
V00000
p804
sg11
V01000
p805
sg13
V04102
p806
sg15
g72
sg17
V10000
p807
sbsV#03 ALEXANDER RUSSOMANNO
p808
g3
(g4
g5
NtRp809
(dp810
g8
g808
sg9
V001110
p811
sg11
V011301
p812
sg13
V414111
p813
sg15
g148
sg17
V000000
p814
sbsV#18 JOHN SPIVA
p815
g3
(g4
g5
NtRp816
(dp817
g8
g815
sg9
V20012
p818
sg11
V00110
p819
sg13
V20112
p820
sg15
g48
sg17
V00100
p821
sbsV#08 Garrett Krebs
p822
g3
(g4
g5
NtRp823
(dp824
g8
g822
sg9
V00000
p825
sg11
V00000
p826
sg13
V00000
p827
sg15
g426
sg17
V00000
p828
sbsV#01 DAVID LUNETTA
p829
g3
(g4
g5
NtRp830
(dp831
g8
g829
sg9
V02003
p832
sg11
V00000
p833
sg13
V00000
p834
sg15
g140
sg17
V00001
p835
sbsV#07 JACK COLLINS
p836
g3
(g4
g5
NtRp837
(dp838
g8
g836
sg9
V00000
p839
sg11
V00000
p840
sg13
V00000
p841
sg15
g194
sg17
V00000
p842
sbsV#35 TODD WOLMA
p843
g3
(g4
g5
NtRp844
(dp845
g8
g843
sg9
V0010001
p846
sg11
V0000000
p847
sg13
V0001100
p848
sg15
g156
sg17
V0000001
p849
sbsV#27 ANDREW COMMANDER
p850
g3
(g4
g5
NtRp851
(dp852
g8
g850
sg9
V0001000
p853
sg11
V0012220
p854
sg13
V2000000
p855
sg15
g156
sg17
V1000010
p856
sbsV#17 PETER MCCLOSKEY
p857
g3
(g4
g5
NtRp858
(dp859
g8
g857
sg9
V00100
p860
sg11
V00000
p861
sg13
V10000
p862
sg15
g25
sg17
V10100
p863
sbsV#42 RYAN  JONES
p864
g3
(g4
g5
NtRp865
(dp866
g8
g864
sg9
V00000
p867
sg11
V00000
p868
sg13
V00000
p869
sg15
g426
sg17
V00000
p870
sbsV#44 DAVID HANKIN
p871
g3
(g4
g5
NtRp872
(dp873
g8
g871
sg9
V01101
p874
sg11
V10101
p875
sg13
V10001
p876
sg15
g194
sg17
V00002
p877
sbsV#08 JAMES HARUM
p878
g3
(g4
g5
NtRp879
(dp880
g8
g878
sg9
V0010000
p881
sg11
V0000000
p882
sg13
V0000000
p883
sg15
g125
sg17
V0100000
p884
sbsV#18 RICHARD WONG
p885
g3
(g4
g5
NtRp886
(dp887
g8
g885
sg9
V00000
p888
sg11
V00000
p889
sg13
V00000
p890
sg15
g64
sg17
V00000
p891
sbsV#40 GALEN RYAN
p892
g3
(g4
g5
NtRp893
(dp894
g8
g892
sg9
V02341
p895
sg11
V11323
p896
sg13
V41210
p897
sg15
g40
sg17
V01000
p898
sbsV#11 Marquis Cofer
p899
g3
(g4
g5
NtRp900
(dp901
g8
g899
sg9
V00000
p902
sg11
V00000
p903
sg13
V00000
p904
sg15
g25
sg17
V00000
p905
sbsV#32 COLIN CAMP
p906
g3
(g4
g5
NtRp907
(dp908
g8
g906
sg9
V004310
p909
sg11
V003213
p910
sg13
V000100
p911
sg15
g186
sg17
V000011
p912
sbsV#10 JAMES KOERNER
p913
g3
(g4
g5
NtRp914
(dp915
g8
g913
sg9
V00000
p916
sg11
V00010
p917
sg13
V00132
p918
sg15
g568
sg17
V00210
p919
sbsV#14 BENJAMIN PAGE
p920
g3
(g4
g5
NtRp921
(dp922
g8
g920
sg9
V000000
p923
sg11
V000000
p924
sg13
V100010
p925
sg15
g148
sg17
V000000
p926
sbsV#32 PATRICK GETTINO
p927
g3
(g4
g5
NtRp928
(dp929
g8
g927
sg9
V10000
p930
sg11
V10100
p931
sg13
V23000
p932
sg15
g88
sg17
V12000
p933
sbsV#08 MITCHELL SAYASENE
p934
g3
(g4
g5
NtRp935
(dp936
g8
g934
sg9
V0000000
p937
sg11
V0000000
p938
sg13
V0000000
p939
sg15
g96
sg17
V0010000
p940
sbsV#07 RICHARD BOYLE
p941
g3
(g4
g5
NtRp942
(dp943
g8
g941
sg9
V00211
p944
sg11
V01111
p945
sg13
V10011
p946
sg15
g25
sg17
V00100
p947
sbsV#00 JASON SILVERMAN
p948
g3
(g4
g5
NtRp949
(dp950
g8
g948
sg9
V22020
p951
sg11
V21300
p952
sg13
V02100
p953
sg15
g88
sg17
V11000
p954
sbsV#09 JONATHAN ROSEN
p955
g3
(g4
g5
NtRp956
(dp957
g8
g955
sg9
V00000
p958
sg11
V00100
p959
sg13
V00000
p960
sg15
g64
sg17
V00000
p961
sbsV#50 SEAN DERROW
p962
g3
(g4
g5
NtRp963
(dp964
g8
g962
sg9
V00000
p965
sg11
V00000
p966
sg13
V00000
p967
sg15
g72
sg17
V00000
p968
sbsV#22 BEN TSEYTLIN
p969
g3
(g4
g5
NtRp970
(dp971
g8
g969
sg9
V20200
p972
sg11
V01002
p973
sg13
V00000
p974
sg15
g140
sg17
V00200
p975
sbsV#05 DANNY BROUDY
p976
g3
(g4
g5
NtRp977
(dp978
g8
g976
sg9
V00011
p979
sg11
V11200
p980
sg13
V00021
p981
sg15
g16
sg17
V11111
p982
sbsV#45 BRYAN REDDEN
p983
g3
(g4
g5
NtRp984
(dp985
g8
g983
sg9
V00000
p986
sg11
V00000
p987
sg13
V00000
p988
sg15
g88
sg17
V00000
p989
sbsV#07 JORDAN MACOCHA
p990
g3
(g4
g5
NtRp991
(dp992
g8
g990
sg9
V000000
p993
sg11
V000000
p994
sg13
V000202
p995
sg15
g148
sg17
V001000
p996
sbsV#00 NOAH BACKER
p997
g3
(g4
g5
NtRp998
(dp999
g8
g997
sg9
V202032
p1000
sg11
V102121
p1001
sg13
V000000
p1002
sg15
g148
sg17
V000110
p1003
sbsV#55 JAKE RITMIRE
p1004
g3
(g4
g5
NtRp1005
(dp1006
g8
g1004
sg9
V01201
p1007
sg11
V01001
p1008
sg13
V01000
p1009
sg15
g40
sg17
V10010
p1010
sbsV#77 BEN SNELL
p1011
g3
(g4
g5
NtRp1012
(dp1013
g8
g1011
sg9
V0000000
p1014
sg11
V0000000
p1015
sg13
V0000000
p1016
sg15
g96
sg17
V0000000
p1017
sbsV#17 SCHUYLER KYLSTRA
p1018
g3
(g4
g5
NtRp1019
(dp1020
g8
g1018
sg9
V0001000
p1021
sg11
V0000000
p1022
sg13
V1300000
p1023
sg15
g96
sg17
V0000100
p1024
sbsV#00 AARON WARSHAUER
p1025
g3
(g4
g5
NtRp1026
(dp1027
g8
g1025
sg9
V0000211
p1028
sg11
V0101112
p1029
sg13
V1101311
p1030
sg15
g96
sg17
V0000000
p1031
sbsV#27 CONNOR HOLCOMBE
p1032
g3
(g4
g5
NtRp1033
(dp1034
g8
g1032
sg9
V11202
p1035
sg11
V12322
p1036
sg13
V43223
p1037
sg15
g568
sg17
V00112
p1038
sbsV#25 NICHOLAS HEATON
p1039
g3
(g4
g5
NtRp1040
(dp1041
g8
g1039
sg9
V000100
p1042
sg11
V000000
p1043
sg13
V000000
p1044
sg15
g56
sg17
V000000
p1045
sbsV#33 ANDY YU
p1046
g3
(g4
g5
NtRp1047
(dp1048
g8
g1046
sg9
V000011
p1049
sg11
V000000
p1050
sg13
V000001
p1051
sg15
g148
sg17
V000000
p1052
sbsV#02 Nikhar ABBAS
p1053
g3
(g4
g5
NtRp1054
(dp1055
g8
g1053
sg9
V14100
p1056
sg11
V20100
p1057
sg13
V10100
p1058
sg15
g178
sg17
V00100
p1059
sbsV#51 TIMOTHY MCALLISTER
p1060
g3
(g4
g5
NtRp1061
(dp1062
g8
g1060
sg9
V0100010
p1063
sg11
V0200000
p1064
sg13
V2001031
p1065
sg15
g96
sg17
V0200111
p1066
sbsV#01 IAN SMITH
p1067
g3
(g4
g5
NtRp1068
(dp1069
g8
g1067
sg9
V00120
p1070
sg11
V01010
p1071
sg13
V04100
p1072
sg15
g426
sg17
V00010
p1073
sbsV#67 PETER MCGINN
p1074
g3
(g4
g5
NtRp1075
(dp1076
g8
g1074
sg9
V00000
p1077
sg11
V00000
p1078
sg13
V02000
p1079
sg15
g140
sg17
V00000
p1080
sbsV#03 DANIEL LOWENSTEIN
p1081
g3
(g4
g5
NtRp1082
(dp1083
g8
g1081
sg9
V00001
p1084
sg11
V00000
p1085
sg13
V00000
p1086
sg15
g72
sg17
V00000
p1087
sbsV#18 HAYDEN WACHOB
p1088
g3
(g4
g5
NtRp1089
(dp1090
g8
g1088
sg9
V00000
p1091
sg11
V00000
p1092
sg13
V00000
p1093
sg15
g88
sg17
V00000
p1094
sbsV#07 JONATHAN LEE
p1095
g3
(g4
g5
NtRp1096
(dp1097
g8
g1095
sg9
V00000
p1098
sg11
V00000
p1099
sg13
V00000
p1100
sg15
g80
sg17
V00000
p1101
sbsV#33 DAVID TAYLOR
p1102
g3
(g4
g5
NtRp1103
(dp1104
g8
g1102
sg9
V00000
p1105
sg11
V00000
p1106
sg13
V00000
p1107
sg15
g48
sg17
V00000
p1108
sbsV#19 GEORGE MILNE
p1109
g3
(g4
g5
NtRp1110
(dp1111
g8
g1109
sg9
V00000
p1112
sg11
V00000
p1113
sg13
V00000
p1114
sg15
g140
sg17
V10100
p1115
sbsV#24 DAVID RESHEF
p1116
g3
(g4
g5
NtRp1117
(dp1118
g8
g1116
sg9
V02300
p1119
sg11
V00001
p1120
sg13
V21121
p1121
sg15
g16
sg17
V00000
p1122
sbsV#22 CODY KIRKLAND
p1123
g3
(g4
g5
NtRp1124
(dp1125
g8
g1123
sg9
V44402
p1126
sg11
V11303
p1127
sg13
V11001
p1128
sg15
g178
sg17
V00100
p1129
sbsV#41 Daniel Lee
p1130
g3
(g4
g5
NtRp1131
(dp1132
g8
g1130
sg9
V000000
p1133
sg11
V000000
p1134
sg13
V000000
p1135
sg15
g148
sg17
V001000
p1136
sbsV#70 SETH DREW
p1137
g3
(g4
g5
NtRp1138
(dp1139
g8
g1137
sg9
V00000
p1140
sg11
V00000
p1141
sg13
V00000
p1142
sg15
g48
sg17
V00000
p1143
sbsV#04 DANIEL ROSENGARD
p1144
g3
(g4
g5
NtRp1145
(dp1146
g8
g1144
sg9
V20010
p1147
sg11
V01100
p1148
sg13
V32011
p1149
sg15
g72
sg17
V01000
p1150
sbsV#04 JONATHAN PARUK
p1151
g3
(g4
g5
NtRp1152
(dp1153
g8
g1151
sg9
V000130
p1154
sg11
V102200
p1155
sg13
V000100
p1156
sg15
g148
sg17
V102010
p1157
sbsV#52 MICHAEL HAGENOW
p1158
g3
(g4
g5
NtRp1159
(dp1160
g8
g1158
sg9
V00102
p1161
sg11
V20000
p1162
sg13
V00000
p1163
sg15
g48
sg17
V10010
p1164
sbsV#22 NATHAN LEHRER
p1165
g3
(g4
g5
NtRp1166
(dp1167
g8
g1165
sg9
V10000
p1168
sg11
V00000
p1169
sg13
V01100
p1170
sg15
g72
sg17
V00000
p1171
sbsV#04 Nick Ochoa
p1172
g3
(g4
g5
NtRp1173
(dp1174
g8
g1172
sg9
V00100
p1175
sg11
V00000
p1176
sg13
V10110
p1177
sg15
g426
sg17
V10000
p1178
sbsV#32 CHRISTIAN JOHNSON
p1179
g3
(g4
g5
NtRp1180
(dp1181
g8
g1179
sg9
V0002524
p1182
sg11
V3103163
p1183
sg13
V5302432
p1184
sg15
g96
sg17
V0101301
p1185
sbsV#76 CLAYTON NOBLIT
p1186
g3
(g4
g5
NtRp1187
(dp1188
g8
g1186
sg9
V0020000
p1189
sg11
V0020000
p1190
sg13
V0020000
p1191
sg15
g96
sg17
V0000000
p1192
sbsV#21 PATRICK ASINGER
p1193
g3
(g4
g5
NtRp1194
(dp1195
g8
g1193
sg9
V00000
p1196
sg11
V00000
p1197
sg13
V00000
p1198
sg15
g25
sg17
V00000
p1199
sbsV#09 DAVID CROMER
p1200
g3
(g4
g5
NtRp1201
(dp1202
g8
g1200
sg9
V00110
p1203
sg11
V00000
p1204
sg13
V00000
p1205
sg15
g568
sg17
V00010
p1206
sbsV#36 DANIEL BOYNTON
p1207
g3
(g4
g5
NtRp1208
(dp1209
g8
g1207
sg9
V02302
p1210
sg11
V11003
p1211
sg13
V33210
p1212
sg15
g80
sg17
V10200
p1213
sbsV#09 JACOB MOUW
p1214
g3
(g4
g5
NtRp1215
(dp1216
g8
g1214
sg9
V0000101
p1217
sg11
V0002100
p1218
sg13
V2003025
p1219
sg15
g96
sg17
V0000011
p1220
sbsV#02 ZACHARY KRIEGER
p1221
g3
(g4
g5
NtRp1222
(dp1223
g8
g1221
sg9
V1000000
p1224
sg11
V0000000
p1225
sg13
V0010000
p1226
sg15
g156
sg17
V0000100
p1227
sbsV#14 Kenneth Justin Lim
p1228
g3
(g4
g5
NtRp1229
(dp1230
g8
g1228
sg9
V30143
p1231
sg11
V00211
p1232
sg13
V31021
p1233
sg15
g40
sg17
V00100
p1234
sbsV#13 JOHN FELDMAN
p1235
g3
(g4
g5
NtRp1236
(dp1237
g8
g1235
sg9
V00000
p1238
sg11
V00000
p1239
sg13
V10001
p1240
sg15
g194
sg17
V00000
p1241
sbsV#06 JESSE HAJI-SHEIKH
p1242
g3
(g4
g5
NtRp1243
(dp1244
g8
g1242
sg9
V100001
p1245
sg11
V000000
p1246
sg13
V100001
p1247
sg15
g148
sg17
V000000
p1248
sbsV#05 CHRISTOPHER LIU
p1249
g3
(g4
g5
NtRp1250
(dp1251
g8
g1249
sg9
V11101
p1252
sg11
V00001
p1253
sg13
V00000
p1254
sg15
g178
sg17
V00000
p1255
sbsV#02 NORMAN ARCHER
p1256
g3
(g4
g5
NtRp1257
(dp1258
g8
g1256
sg9
V0010012
p1259
sg11
V0100000
p1260
sg13
V0000000
p1261
sg15
g96
sg17
V0000001
p1262
sbsV#44 CEDAR FARWELL
p1263
g3
(g4
g5
NtRp1264
(dp1265
g8
g1263
sg9
V00000
p1266
sg11
V00001
p1267
sg13
V00000
p1268
sg15
g72
sg17
V00000
p1269
sbsV#19 REILLY GARDNER
p1270
g3
(g4
g5
NtRp1271
(dp1272
g8
g1270
sg9
V000110
p1273
sg11
V000000
p1274
sg13
V000100
p1275
sg15
g56
sg17
V000000
p1276
sbsV#54 Glenn Allen
p1277
g3
(g4
g5
NtRp1278
(dp1279
g8
g1277
sg9
V00000
p1280
sg11
V00000
p1281
sg13
V00000
p1282
sg15
g178
sg17
V00000
p1283
sbsV#12 AARON LEE
p1284
g3
(g4
g5
NtRp1285
(dp1286
g8
g1284
sg9
V33301
p1287
sg11
V00000
p1288
sg13
V01001
p1289
sg15
g178
sg17
V00000
p1290
sbsV#24 DANIEL PAVITT
p1291
g3
(g4
g5
NtRp1292
(dp1293
g8
g1291
sg9
V10220
p1294
sg11
V10011
p1295
sg13
V24322
p1296
sg15
g48
sg17
V00000
p1297
sbsV#07 ANDREW ZHANG
p1298
g3
(g4
g5
NtRp1299
(dp1300
g8
g1298
sg9
V00000
p1301
sg11
V10000
p1302
sg13
V11000
p1303
sg15
g64
sg17
V00000
p1304
sbsV#01 AARON WAN
p1305
g3
(g4
g5
NtRp1306
(dp1307
g8
g1305
sg9
V0210000
p1308
sg11
V0110000
p1309
sg13
V0000001
p1310
sg15
g96
sg17
V0000000
p1311
sbsV#12 CASEY LEMAY
p1312
g3
(g4
g5
NtRp1313
(dp1314
g8
g1312
sg9
V000000
p1315
sg11
V000000
p1316
sg13
V000000
p1317
sg15
g490
sg17
V000000
p1318
sbsV#42 MIKE OGREN
p1319
g3
(g4
g5
NtRp1320
(dp1321
g8
g1319
sg9
V13123
p1322
sg11
V33203
p1323
sg13
V01102
p1324
sg15
g194
sg17
V01010
p1325
sbsV#34 TIM MCGINN
p1326
g3
(g4
g5
NtRp1327
(dp1328
g8
g1326
sg9
V000000
p1329
sg11
V000000
p1330
sg13
V000000
p1331
sg15
g56
sg17
V000000
p1332
sbsV#02 WESLEY CHEN
p1333
g3
(g4
g5
NtRp1334
(dp1335
g8
g1333
sg9
V000000
p1336
sg11
V000000
p1337
sg13
V000000
p1338
sg15
g148
sg17
V000000
p1339
sbsV#05 Jackson Barron
p1340
g3
(g4
g5
NtRp1341
(dp1342
g8
g1340
sg9
V00100
p1343
sg11
V00000
p1344
sg13
V10100
p1345
sg15
g140
sg17
V00001
p1346
sbsV#44 GIANCARLO CINCOTTA
p1347
g3
(g4
g5
NtRp1348
(dp1349
g8
g1347
sg9
V00000
p1350
sg11
V01000
p1351
sg13
V10000
p1352
sg15
g140
sg17
V00000
p1353
sbsV#31 NICHOLAS GOLINI
p1354
g3
(g4
g5
NtRp1355
(dp1356
g8
g1354
sg9
V10000
p1357
sg11
V00010
p1358
sg13
V00001
p1359
sg15
g72
sg17
V00000
p1360
sbsV#17 JOSH PUTTBACH
p1361
g3
(g4
g5
NtRp1362
(dp1363
g8
g1361
sg9
V00000
p1364
sg11
V00000
p1365
sg13
V00000
p1366
sg15
g568
sg17
V00000
p1367
sbsV#31 SAM ISAAC
p1368
g3
(g4
g5
NtRp1369
(dp1370
g8
g1368
sg9
V10000
p1371
sg11
V00000
p1372
sg13
V00000
p1373
sg15
g48
sg17
V10000
p1374
sbsV#08 JOSEPH SUTHERLAND
p1375
g3
(g4
g5
NtRp1376
(dp1377
g8
g1375
sg9
V00000
p1378
sg11
V00000
p1379
sg13
V00001
p1380
sg15
g88
sg17
V00000
p1381
sbsV#06 DANIEL FINCH
p1382
g3
(g4
g5
NtRp1383
(dp1384
g8
g1382
sg9
V00000
p1385
sg11
V00000
p1386
sg13
V01010
p1387
sg15
g72
sg17
V00010
p1388
sbsV#93 JONATHAN BERGAN
p1389
g3
(g4
g5
NtRp1390
(dp1391
g8
g1389
sg9
V100000
p1392
sg11
V000000
p1393
sg13
V300000
p1394
sg15
g56
sg17
V000000
p1395
sbsV#14 JOHN STUBBS
p1396
g3
(g4
g5
NtRp1397
(dp1398
g8
g1396
sg9
V23322
p1399
sg11
V10133
p1400
sg13
V21134
p1401
sg15
g16
sg17
V20152
p1402
sbsV#29 MATT GLEASON
p1403
g3
(g4
g5
NtRp1404
(dp1405
g8
g1403
sg9
V0001100
p1406
sg11
V0000100
p1407
sg13
V0001200
p1408
sg15
g156
sg17
V0021000
p1409
sbsV#15 TANNER REPASKY
p1410
g3
(g4
g5
NtRp1411
(dp1412
g8
g1410
sg9
V10000
p1413
sg11
V01101
p1414
sg13
V31333
p1415
sg15
g88
sg17
V00010
p1416
sbsV#27 GRANT FURNIER
p1417
g3
(g4
g5
NtRp1418
(dp1419
g8
g1417
sg9
V00000
p1420
sg11
V00000
p1421
sg13
V20110
p1422
sg15
g80
sg17
V10100
p1423
sbsV#35 KEVIN TANG
p1424
g3
(g4
g5
NtRp1425
(dp1426
g8
g1424
sg9
V00000
p1427
sg11
V10100
p1428
sg13
V00000
p1429
sg15
g25
sg17
V00000
p1430
sbsV#16 THOMAS TERRIO
p1431
g3
(g4
g5
NtRp1432
(dp1433
g8
g1431
sg9
V0000010
p1434
sg11
V0000000
p1435
sg13
V0000000
p1436
sg15
g125
sg17
V0000000
p1437
sbsV#20 CHASE CUNNINGHAM
p1438
g3
(g4
g5
NtRp1439
(dp1440
g8
g1438
sg9
V103121
p1441
sg11
V112310
p1442
sg13
V101000
p1443
sg15
g490
sg17
V001100
p1444
sbsV#01 SIDNEY WATTS
p1445
g3
(g4
g5
NtRp1446
(dp1447
g8
g1445
sg9
V000000
p1448
sg11
V000000
p1449
sg13
V000000
p1450
sg15
g490
sg17
V000000
p1451
sbsV#24 SAM VANDUSEN
p1452
g3
(g4
g5
NtRp1453
(dp1454
g8
g1452
sg9
V20221
p1455
sg11
V20030
p1456
sg13
V00100
p1457
sg15
g25
sg17
V10000
p1458
sbsV#24 MATT BUBERNAK
p1459
g3
(g4
g5
NtRp1460
(dp1461
g8
g1459
sg9
V0000001
p1462
sg11
V0000000
p1463
sg13
V0000000
p1464
sg15
g156
sg17
V0000000
p1465
sbsV#09 BOBBY LEY
p1466
g3
(g4
g5
NtRp1467
(dp1468
g8
g1466
sg9
V62160
p1469
sg11
V35410
p1470
sg13
V12010
p1471
sg15
g88
sg17
V00020
p1472
sbsV#28 ANDREW LAROCQUE
p1473
g3
(g4
g5
NtRp1474
(dp1475
g8
g1473
sg9
V00000
p1476
sg11
V00000
p1477
sg13
V00000
p1478
sg15
g568
sg17
V00000
p1479
sbsV#10 ALEXANDER HEATLIE
p1480
g3
(g4
g5
NtRp1481
(dp1482
g8
g1480
sg9
V000000
p1483
sg11
V000000
p1484
sg13
V000110
p1485
sg15
g148
sg17
V000011
p1486
sbsV#08 JACOB (JAKE) MCNAMARA
p1487
g3
(g4
g5
NtRp1488
(dp1489
g8
g1487
sg9
V00000
p1490
sg11
V00000
p1491
sg13
V00000
p1492
sg15
g16
sg17
V00000
p1493
sbsV#04 BRADLEY SEUNTJENS
p1494
g3
(g4
g5
NtRp1495
(dp1496
g8
g1494
sg9
V00020
p1497
sg11
V00020
p1498
sg13
V00220
p1499
sg15
g88
sg17
V00000
p1500
sbsV#09 BRETT SZALAPSKI
p1501
g3
(g4
g5
NtRp1502
(dp1503
g8
g1501
sg9
V00021
p1504
sg11
V00110
p1505
sg13
V00000
p1506
sg15
g72
sg17
V00000
p1507
sbsV#32 ALEXANDER KONG
p1508
g3
(g4
g5
NtRp1509
(dp1510
g8
g1508
sg9
V00000
p1511
sg11
V00000
p1512
sg13
V00001
p1513
sg15
g64
sg17
V00000
p1514
sbsV#10 AUSTIN DELK
p1515
g3
(g4
g5
NtRp1516
(dp1517
g8
g1515
sg9
V00000
p1518
sg11
V00000
p1519
sg13
V00010
p1520
sg15
g426
sg17
V00000
p1521
sbsV#07 HIDDE SNIEDER
p1522
g3
(g4
g5
NtRp1523
(dp1524
g8
g1522
sg9
V0000001
p1525
sg11
V0002011
p1526
sg13
V0121010
p1527
sg15
g156
sg17
V0000001
p1528
sbsV#03 JAMES DAHL
p1529
g3
(g4
g5
NtRp1530
(dp1531
g8
g1529
sg9
V70070
p1532
sg11
V25250
p1533
sg13
V00100
p1534
sg15
g88
sg17
V11020
p1535
sbsV#66 WILLIAM WATKINS
p1536
g3
(g4
g5
NtRp1537
(dp1538
g8
g1536
sg9
V000000
p1539
sg11
V000000
p1540
sg13
V100010
p1541
sg15
g56
sg17
V101100
p1542
sbsV#26 HUNTER WILSON
p1543
g3
(g4
g5
NtRp1544
(dp1545
g8
g1543
sg9
V0020010
p1546
sg11
V0030000
p1547
sg13
V0120000
p1548
sg15
g96
sg17
V0000000
p1549
sbsV#12 KRISHNA MAHAJAN
p1550
g3
(g4
g5
NtRp1551
(dp1552
g8
g1550
sg9
V000000
p1553
sg11
V000000
p1554
sg13
V000000
p1555
sg15
g148
sg17
V000000
p1556
sbsV#15 DENNISON CHRIS BECHIS
p1557
g3
(g4
g5
NtRp1558
(dp1559
g8
g1557
sg9
V0011021
p1560
sg11
V0014004
p1561
sg13
V5003020
p1562
sg15
g156
sg17
V0001011
p1563
sbsV#06 BEN MAXSON
p1564
g3
(g4
g5
NtRp1565
(dp1566
g8
g1564
sg9
V0020000
p1567
sg11
V0010000
p1568
sg13
V0010000
p1569
sg15
g96
sg17
V0010000
p1570
sbsV#05 DAYAN D'ANIELLO
p1571
g3
(g4
g5
NtRp1572
(dp1573
g8
g1571
sg9
V00000
p1574
sg11
V00000
p1575
sg13
V00000
p1576
sg15
g88
sg17
V00000
p1577
sbsV#18 CHRISTOPHER LAROCQUE
p1578
g3
(g4
g5
NtRp1579
(dp1580
g8
g1578
sg9
V00000
p1581
sg11
V00000
p1582
sg13
V00000
p1583
sg15
g568
sg17
V00000
p1584
sbsV#05 ANDREW PILLSBURY
p1585
g3
(g4
g5
NtRp1586
(dp1587
g8
g1585
sg9
V10011
p1588
sg11
V02001
p1589
sg13
V00212
p1590
sg15
g72
sg17
V10211
p1591
sbsV#07 ADRIAN PFORZHEIMER
p1592
g3
(g4
g5
NtRp1593
(dp1594
g8
g1592
sg9
V00010
p1595
sg11
V21130
p1596
sg13
V11310
p1597
sg15
g16
sg17
V00000
p1598
sbsV#10 MATT THOMPSON
p1599
g3
(g4
g5
NtRp1600
(dp1601
g8
g1599
sg9
V00000
p1602
sg11
V00000
p1603
sg13
V00000
p1604
sg15
g88
sg17
V00001
p1605
sbsV#84 JESSE COHEN
p1606
g3
(g4
g5
NtRp1607
(dp1608
g8
g1606
sg9
V01101
p1609
sg11
V03302
p1610
sg13
V00201
p1611
sg15
g178
sg17
V01000
p1612
sbsV#17 BRENNAN FLYNN
p1613
g3
(g4
g5
NtRp1614
(dp1615
g8
g1613
sg9
V00000
p1616
sg11
V00000
p1617
sg13
V00000
p1618
sg15
g80
sg17
V00000
p1619
sbsV#52 MICHAEL ANTHONY
p1620
g3
(g4
g5
NtRp1621
(dp1622
g8
g1620
sg9
V0000200
p1623
sg11
V2101100
p1624
sg13
V1300222
p1625
sg15
g125
sg17
V0100000
p1626
sbsV#69 ERIC  BUENROSTRO
p1627
g3
(g4
g5
NtRp1628
(dp1629
g8
g1627
sg9
V00000
p1630
sg11
V00000
p1631
sg13
V00000
p1632
sg15
g194
sg17
V00000
p1633
sbsV#80 JEREMY HARKER
p1634
g3
(g4
g5
NtRp1635
(dp1636
g8
g1634
sg9
V1002303
p1637
sg11
V0011121
p1638
sg13
V0000100
p1639
sg15
g156
sg17
V0001000
p1640
sbsV#15 MORGAN STANLEY
p1641
g3
(g4
g5
NtRp1642
(dp1643
g8
g1641
sg9
V01000
p1644
sg11
V00010
p1645
sg13
V21114
p1646
sg15
g568
sg17
V01001
p1647
sbsV#04 JEREMY NIXON
p1648
g3
(g4
g5
NtRp1649
(dp1650
g8
g1648
sg9
V23413
p1651
sg11
V01322
p1652
sg13
V33044
p1653
sg15
g16
sg17
V00010
p1654
sbsV#21 MITCHELL BENNETT
p1655
g3
(g4
g5
NtRp1656
(dp1657
g8
g1655
sg9
V213101
p1658
sg11
V401120
p1659
sg13
V103230
p1660
sg15
g490
sg17
V000000
p1661
sbsV#02 GAVIN MURPHY
p1662
g3
(g4
g5
NtRp1663
(dp1664
g8
g1662
sg9
V10101
p1665
sg11
V00010
p1666
sg13
V00000
p1667
sg15
g48
sg17
V00011
p1668
sbsV#02 MATTHEW BENNETT
p1669
g3
(g4
g5
NtRp1670
(dp1671
g8
g1669
sg9
V55560
p1672
sg11
V466110
p1673
sg13
V00000
p1674
sg15
g426
sg17
V11200
p1675
sbsV#83 CHRIS GIRON
p1676
g3
(g4
g5
NtRp1677
(dp1678
g8
g1676
sg9
V000000
p1679
sg11
V000000
p1680
sg13
V000000
p1681
sg15
g490
sg17
V000000
p1682
sbsV#23 JIMMY MICKLE
p1683
g3
(g4
g5
NtRp1684
(dp1685
g8
g1683
sg9
V2041052
p1686
sg11
V3153034
p1687
sg13
V0120054
p1688
sg15
g156
sg17
V1020011
p1689
sbsV#09 JACOB RADFORD
p1690
g3
(g4
g5
NtRp1691
(dp1692
g8
g1690
sg9
V00100
p1693
sg11
V00000
p1694
sg13
V10000
p1695
sg15
g194
sg17
V00000
p1696
sbsV#42 NORRIS PERKINS
p1697
g3
(g4
g5
NtRp1698
(dp1699
g8
g1697
sg9
V000220
p1700
sg11
V001000
p1701
sg13
V320031
p1702
sg15
g490
sg17
V100110
p1703
sbsV#27 TREVOR SMITH
p1704
g3
(g4
g5
NtRp1705
(dp1706
g8
g1704
sg9
V411030
p1707
sg11
V261220
p1708
sg13
V001110
p1709
sg15
g56
sg17
V000010
p1710
sbsV#18 PHILIP SUN
p1711
g3
(g4
g5
NtRp1712
(dp1713
g8
g1711
sg9
V1000120
p1714
sg11
V1000000
p1715
sg13
V0000100
p1716
sg15
g156
sg17
V1000000
p1717
sbsV#02 CHARLIE WILSON-MOSES
p1718
g3
(g4
g5
NtRp1719
(dp1720
g8
g1718
sg9
V213131
p1721
sg11
V233420
p1722
sg13
V120021
p1723
sg15
g56
sg17
V000010
p1724
sbsV#81 SAMUEL RICHARDSON
p1725
g3
(g4
g5
NtRp1726
(dp1727
g8
g1725
sg9
V00100
p1728
sg11
V00200
p1729
sg13
V10300
p1730
sg15
g140
sg17
V11001
p1731
sbsV#05 Thomas Mazza
p1732
g3
(g4
g5
NtRp1733
(dp1734
g8
g1732
sg9
V00000
p1735
sg11
V00000
p1736
sg13
V01000
p1737
sg15
g568
sg17
V00000
p1738
sbsV#97 Zachary Murez
p1739
g3
(g4
g5
NtRp1740
(dp1741
g8
g1739
sg9
V00000
p1742
sg11
V00000
p1743
sg13
V00000
p1744
sg15
g178
sg17
V00000
p1745
sbsV#14 DENNIS MERWORTH
p1746
g3
(g4
g5
NtRp1747
(dp1748
g8
g1746
sg9
V000000
p1749
sg11
V000000
p1750
sg13
V000000
p1751
sg15
g490
sg17
V000000
p1752
sbsV#03 CALE WARD
p1753
g3
(g4
g5
NtRp1754
(dp1755
g8
g1753
sg9
V0000000
p1756
sg11
V0000000
p1757
sg13
V0010000
p1758
sg15
g125
sg17
V0000000
p1759
sbsV#21 J WESLEY CHOW
p1760
g3
(g4
g5
NtRp1761
(dp1762
g8
g1760
sg9
V0010110
p1763
sg11
V0010100
p1764
sg13
V0010100
p1765
sg15
g156
sg17
V0001000
p1766
sbsV#13 LEO BLOOSTON
p1767
g3
(g4
g5
NtRp1768
(dp1769
g8
g1767
sg9
V00000
p1770
sg11
V00010
p1771
sg13
V01100
p1772
sg15
g72
sg17
V10001
p1773
sbsV#20 NICK ZEMAN
p1774
g3
(g4
g5
NtRp1775
(dp1776
g8
g1774
sg9
V002010
p1777
sg11
V010010
p1778
sg13
V001221
p1779
sg15
g186
sg17
V002110
p1780
sbsV#17 BEN KATZ
p1781
g3
(g4
g5
NtRp1782
(dp1783
g8
g1781
sg9
V10002
p1784
sg11
V11201
p1785
sg13
V10001
p1786
sg15
g140
sg17
V02000
p1787
sbsV#10 DYLAN FREECHILD
p1788
g3
(g4
g5
NtRp1789
(dp1790
g8
g1788
sg9
V211200
p1791
sg11
V015161
p1792
sg13
V064301
p1793
sg15
g56
sg17
V301031
p1794
sbsV#04 TYLER GATES
p1795
g3
(g4
g5
NtRp1796
(dp1797
g8
g1795
sg9
V01000
p1798
sg11
V00000
p1799
sg13
V00100
p1800
sg15
g178
sg17
V01000
p1801
sbsV#10 MARK VANDENBERG
p1802
g3
(g4
g5
NtRp1803
(dp1804
g8
g1802
sg9
V34442
p1805
sg11
V86244
p1806
sg13
V03000
p1807
sg15
g16
sg17
V02100
p1808
sbsV#25 ROSS BARKER
p1809
g3
(g4
g5
NtRp1810
(dp1811
g8
g1809
sg9
V102100
p1812
sg11
V211040
p1813
sg13
V420133
p1814
sg15
g186
sg17
V000001
p1815
sbsV#21 ELLIS NOTTINGHAM
p1816
g3
(g4
g5
NtRp1817
(dp1818
g8
g1816
sg9
V0320002
p1819
sg11
V1024234
p1820
sg13
V2011021
p1821
sg15
g125
sg17
V0001011
p1822
sbsV#11 LIAM RAWSON
p1823
g3
(g4
g5
NtRp1824
(dp1825
g8
g1823
sg9
V01000
p1826
sg11
V00000
p1827
sg13
V00000
p1828
sg15
g568
sg17
V00000
p1829
sbsV#14 LUKE YANKER
p1830
g3
(g4
g5
NtRp1831
(dp1832
g8
g1830
sg9
V00000
p1833
sg11
V00000
p1834
sg13
V00000
p1835
sg15
g426
sg17
V00000
p1836
sbsV#07 YUKINOBU TANIMOTO
p1837
g3
(g4
g5
NtRp1838
(dp1839
g8
g1837
sg9
V20001
p1840
sg11
V10010
p1841
sg13
V10101
p1842
sg15
g48
sg17
V00001
p1843
sbsV#22 CHRISTIAN PITTS
p1844
g3
(g4
g5
NtRp1845
(dp1846
g8
g1844
sg9
V00000
p1847
sg11
V00100
p1848
sg13
V20300
p1849
sg15
g25
sg17
V30311
p1850
sbsV#41 JESSE MAHLER
p1851
g3
(g4
g5
NtRp1852
(dp1853
g8
g1851
sg9
V00000
p1854
sg11
V10000
p1855
sg13
V10011
p1856
sg15
g48
sg17
V10000
p1857
sbsV#20 EUGENE BUONACCORSI
p1858
g3
(g4
g5
NtRp1859
(dp1860
g8
g1858
sg9
V11222
p1861
sg11
V22204
p1862
sg13
V02050
p1863
sg15
g48
sg17
V00010
p1864
sbsV#04 MIKE FRENCH
p1865
g3
(g4
g5
NtRp1866
(dp1867
g8
g1865
sg9
V0010000
p1868
sg11
V0010000
p1869
sg13
V0010000
p1870
sg15
g96
sg17
V0010000
p1871
sbsV#17 TSUKI HOSHIJIMA
p1872
g3
(g4
g5
NtRp1873
(dp1874
g8
g1872
sg9
V00000
p1875
sg11
V00000
p1876
sg13
V10000
p1877
sg15
g16
sg17
V10000
p1878
sbsV#35 DAVID SMITH
p1879
g3
(g4
g5
NtRp1880
(dp1881
g8
g1879
sg9
V00000
p1882
sg11
V00000
p1883
sg13
V00100
p1884
sg15
g426
sg17
V00000
p1885
sbsV#80 CONNOR COLE
p1886
g3
(g4
g5
NtRp1887
(dp1888
g8
g1886
sg9
V00110
p1889
sg11
V00000
p1890
sg13
V00000
p1891
sg15
g426
sg17
V10000
p1892
sbsV#25 COLE FRIEDES
p1893
g3
(g4
g5
NtRp1894
(dp1895
g8
g1893
sg9
V00100
p1896
sg11
V00000
p1897
sg13
V00101
p1898
sg15
g568
sg17
V00000
p1899
sbsV#61 CARL MORGENSTERN
p1900
g3
(g4
g5
NtRp1901
(dp1902
g8
g1900
sg9
V10100
p1903
sg11
V10100
p1904
sg13
V20010
p1905
sg15
g25
sg17
V00010
p1906
sbsV#18 HARRY STONE
p1907
g3
(g4
g5
NtRp1908
(dp1909
g8
g1907
sg9
V00000
p1910
sg11
V00001
p1911
sg13
V10000
p1912
sg15
g16
sg17
V00000
p1913
sbsV#57 WILLIAM DRISCOLL
p1914
g3
(g4
g5
NtRp1915
(dp1916
g8
g1914
sg9
V202540
p1917
sg11
V365462
p1918
sg13
V233540
p1919
sg15
g490
sg17
V100300
p1920
sbsV#40 ROBERT MOYER
p1921
g3
(g4
g5
NtRp1922
(dp1923
g8
g1921
sg9
V000000
p1924
sg11
V000000
p1925
sg13
V000000
p1926
sg15
g148
sg17
V000000
p1927
sbsV#05 SAUL GRAVES
p1928
g3
(g4
g5
NtRp1929
(dp1930
g8
g1928
sg9
V00100
p1931
sg11
V00000
p1932
sg13
V10011
p1933
sg15
g25
sg17
V00000
p1934
sbsV#02 DAVID DIBIASE
p1935
g3
(g4
g5
NtRp1936
(dp1937
g8
g1935
sg9
V02504
p1938
sg11
V20002
p1939
sg13
V00101
p1940
sg15
g140
sg17
V11000
p1941
sbsV#34 GARRETT PELTON
p1942
g3
(g4
g5
NtRp1943
(dp1944
g8
g1942
sg9
V00000
p1945
sg11
V22000
p1946
sg13
V02011
p1947
sg15
g194
sg17
V00000
p1948
sbsV#33 TIMOTHY DURBIN
p1949
g3
(g4
g5
NtRp1950
(dp1951
g8
g1949
sg9
V000010
p1952
sg11
V000000
p1953
sg13
V000000
p1954
sg15
g56
sg17
V000000
p1955
sbsV#10 SHASHANK ALLADI
p1956
g3
(g4
g5
NtRp1957
(dp1958
g8
g1956
sg9
V00000
p1959
sg11
V00000
p1960
sg13
V00001
p1961
sg15
g64
sg17
V00000
p1962
sbsV#07 CLARK  COFER
p1963
g3
(g4
g5
NtRp1964
(dp1965
g8
g1963
sg9
V11424
p1966
sg11
V14250
p1967
sg13
V24220
p1968
sg15
g568
sg17
V10000
p1969
sbsV#25 GARY GRANT
p1970
g3
(g4
g5
NtRp1971
(dp1972
g8
g1970
sg9
V42311
p1973
sg11
V32002
p1974
sg13
V02202
p1975
sg15
g80
sg17
V01203
p1976
sbsV#16 ROB BRICE
p1977
g3
(g4
g5
NtRp1978
(dp1979
g8
g1977
sg9
V01000
p1980
sg11
V01000
p1981
sg13
V00000
p1982
sg15
g88
sg17
V00000
p1983
sbsV#32 JOEL CLUTTON
p1984
g3
(g4
g5
NtRp1985
(dp1986
g8
g1984
sg9
V010000
p1987
sg11
V110101
p1988
sg13
V332121
p1989
sg15
g490
sg17
V210100
p1990
sbsV#05 NOAH STUART
p1991
g3
(g4
g5
NtRp1992
(dp1993
g8
g1991
sg9
V010000
p1994
sg11
V000000
p1995
sg13
V000000
p1996
sg15
g56
sg17
V000000
p1997
sbsV#44 SPENCER LATARSKI
p1998
g3
(g4
g5
NtRp1999
(dp2000
g8
g1998
sg9
V000000
p2001
sg11
V000000
p2002
sg13
V000010
p2003
sg15
g56
sg17
V000000
p2004
sbsV#05 LOUIS COHEN
p2005
g3
(g4
g5
NtRp2006
(dp2007
g8
g2005
sg9
V03012
p2008
sg11
V10031
p2009
sg13
V01011
p2010
sg15
g40
sg17
V00002
p2011
sbsV#31 JEFFREY BABBITT
p2012
g3
(g4
g5
NtRp2013
(dp2014
g8
g2012
sg9
V00002
p2015
sg11
V00100
p2016
sg13
V00106
p2017
sg15
g140
sg17
V00000
p2018
sbsV#42 ALEX (EVAN) GROSSKURTH
p2019
g3
(g4
g5
NtRp2020
(dp2021
g8
g2019
sg9
V0010000
p2022
sg11
V0000000
p2023
sg13
V0030000
p2024
sg15
g96
sg17
V0000000
p2025
sbsV#03 ELI MILLER
p2026
g3
(g4
g5
NtRp2027
(dp2028
g8
g2026
sg9
V00010
p2029
sg11
V02000
p2030
sg13
V00002
p2031
sg15
g40
sg17
V00000
p2032
sbsV#09 ROBERT LEWIS
p2033
g3
(g4
g5
NtRp2034
(dp2035
g8
g2033
sg9
V33300
p2036
sg11
V02100
p2037
sg13
V10010
p2038
sg15
g426
sg17
V00100
p2039
sbsV#25 SEAN GRIFFIN
p2040
g3
(g4
g5
NtRp2041
(dp2042
g8
g2040
sg9
V00002
p2043
sg11
V00100
p2044
sg13
V00000
p2045
sg15
g72
sg17
V00110
p2046
sbsV#22 ZACH MEYER
p2047
g3
(g4
g5
NtRp2048
(dp2049
g8
g2047
sg9
V000000
p2050
sg11
V000010
p2051
sg13
V001110
p2052
sg15
g56
sg17
V000200
p2053
sbsV#05 WILKIN HANAWAY
p2054
g3
(g4
g5
NtRp2055
(dp2056
g8
g2054
sg9
V0000110
p2057
sg11
V0000000
p2058
sg13
V0010000
p2059
sg15
g125
sg17
V0001100
p2060
sbsV#17 AARYAMAN SINGHAL
p2061
g3
(g4
g5
NtRp2062
(dp2063
g8
g2061
sg9
V000000
p2064
sg11
V000000
p2065
sg13
V000000
p2066
sg15
g490
sg17
V000000
p2067
sbsV#21 NATHAN WARDEN
p2068
g3
(g4
g5
NtRp2069
(dp2070
g8
g2068
sg9
V0000100
p2071
sg11
V0000000
p2072
sg13
V1000000
p2073
sg15
g96
sg17
V0202000
p2074
sbsV#23 MAX TEENER
p2075
g3
(g4
g5
NtRp2076
(dp2077
g8
g2075
sg9
V000000
p2078
sg11
V000000
p2079
sg13
V000011
p2080
sg15
g148
sg17
V000101
p2081
sbsV#12 SKYLER TOM
p2082
g3
(g4
g5
NtRp2083
(dp2084
g8
g2082
sg9
V10000
p2085
sg11
V00000
p2086
sg13
V10000
p2087
sg15
g48
sg17
V00000
p2088
sbsV#10 MAX TROTTER
p2089
g3
(g4
g5
NtRp2090
(dp2091
g8
g2089
sg9
V0000100
p2092
sg11
V0000000
p2093
sg13
V0000000
p2094
sg15
g156
sg17
V0000000
p2095
sbsV#19 JASON SHNIPES
p2096
g3
(g4
g5
NtRp2097
(dp2098
g8
g2096
sg9
V00000
p2099
sg11
V00000
p2100
sg13
V00000
p2101
sg15
g48
sg17
V00000
p2102
sbsV#33 KODY COTTON
p2103
g3
(g4
g5
NtRp2104
(dp2105
g8
g2103
sg9
V00010
p2106
sg11
V00000
p2107
sg13
V00000
p2108
sg15
g568
sg17
V01000
p2109
sbsV#08 BEN  SADOK
p2110
g3
(g4
g5
NtRp2111
(dp2112
g8
g2110
sg9
V21100
p2113
sg11
V00301
p2114
sg13
V20200
p2115
sg15
g140
sg17
V10002
p2116
sbsV#24 NICHOLAS JACKSON
p2117
g3
(g4
g5
NtRp2118
(dp2119
g8
g2117
sg9
V0100120
p2120
sg11
V3114212
p2121
sg13
V1101532
p2122
sg15
g125
sg17
V0010011
p2123
sbsV#94 ZACHARY SPIDELL
p2124
g3
(g4
g5
NtRp2125
(dp2126
g8
g2124
sg9
V00000
p2127
sg11
V00000
p2128
sg13
V00000
p2129
sg15
g178
sg17
V00000
p2130
sbsV#19 ANDREW AUYEUNG
p2131
g3
(g4
g5
NtRp2132
(dp2133
g8
g2131
sg9
V00001
p2134
sg11
V10002
p2135
sg13
V10000
p2136
sg15
g64
sg17
V00000
p2137
sbsV#03 ELLIOT LEE
p2138
g3
(g4
g5
NtRp2139
(dp2140
g8
g2138
sg9
V00403
p2141
sg11
V12101
p2142
sg13
V01100
p2143
sg15
g140
sg17
V00000
p2144
sbsV#44 JESSE FISHER
p2145
g3
(g4
g5
NtRp2146
(dp2147
g8
g2145
sg9
V2000000
p2148
sg11
V2000101
p2149
sg13
V1000301
p2150
sg15
g156
sg17
V0000000
p2151
sbsV#36 CHARLES COLEMAN
p2152
g3
(g4
g5
NtRp2153
(dp2154
g8
g2152
sg9
V01100
p2155
sg11
V00000
p2156
sg13
V21110
p2157
sg15
g426
sg17
V00000
p2158
sbsV#31 CHRIS BROOKS
p2159
g3
(g4
g5
NtRp2160
(dp2161
g8
g2159
sg9
V021201
p2162
sg11
V011100
p2163
sg13
V021010
p2164
sg15
g490
sg17
V000000
p2165
sbsV#48 JIMMY TOWLE
p2166
g3
(g4
g5
NtRp2167
(dp2168
g8
g2166
sg9
V00000
p2169
sg11
V00000
p2170
sg13
V00000
p2171
sg15
g25
sg17
V00000
p2172
sbsV#23 THOMAS SLACK
p2173
g3
(g4
g5
NtRp2174
(dp2175
g8
g2173
sg9
V00310
p2176
sg11
V10000
p2177
sg13
V23140
p2178
sg15
g426
sg17
V11000
p2179
sbsV#26 Aaron Spector
p2180
g3
(g4
g5
NtRp2181
(dp2182
g8
g2180
sg9
V00001
p2183
sg11
V00001
p2184
sg13
V00001
p2185
sg15
g88
sg17
V00000
p2186
sbsV#11 Andrew Adler
p2187
g3
(g4
g5
NtRp2188
(dp2189
g8
g2187
sg9
V00000
p2190
sg11
V00000
p2191
sg13
V00000
p2192
sg15
g80
sg17
V00000
p2193
sbsV#33 KOLBY JANZEN
p2194
g3
(g4
g5
NtRp2195
(dp2196
g8
g2194
sg9
V101300
p2197
sg11
V111100
p2198
sg13
V211200
p2199
sg15
g490
sg17
V000010
p2200
sbsV#06 BRIAN RODRIGUEZ
p2201
g3
(g4
g5
NtRp2202
(dp2203
g8
g2201
sg9
V01100
p2204
sg11
V70101
p2205
sg13
V00000
p2206
sg15
g140
sg17
V00000
p2207
sbsV#11 JUSTIN MOORE
p2208
g3
(g4
g5
NtRp2209
(dp2210
g8
g2208
sg9
V0000120
p2211
sg11
V0000100
p2212
sg13
V0001001
p2213
sg15
g96
sg17
V0000010
p2214
sbsV#00 ROBERT OLNEY
p2215
g3
(g4
g5
NtRp2216
(dp2217
g8
g2215
sg9
V00000
p2218
sg11
V00000
p2219
sg13
V00001
p2220
sg15
g40
sg17
V00000
p2221
sbsV#07 TRIP BRIGHTWELL
p2222
g3
(g4
g5
NtRp2223
(dp2224
g8
g2222
sg9
V0000010
p2225
sg11
V0000000
p2226
sg13
V0000010
p2227
sg15
g125
sg17
V0000000
p2228
sbsV#20 ANDREW DYER JR
p2229
g3
(g4
g5
NtRp2230
(dp2231
g8
g2229
sg9
V000000
p2232
sg11
V000000
p2233
sg13
V000000
p2234
sg15
g148
sg17
V000000
p2235
sbsV#89 MICHAEL KICHURA
p2236
g3
(g4
g5
NtRp2237
(dp2238
g8
g2236
sg9
V00200
p2239
sg11
V00000
p2240
sg13
V00100
p2241
sg15
g64
sg17
V00000
p2242
sbsV#01 JASON HOLLERAN
p2243
g3
(g4
g5
NtRp2244
(dp2245
g8
g2243
sg9
V11400
p2246
sg11
V42203
p2247
sg13
V01220
p2248
sg15
g568
sg17
V00024
p2249
sbsV#08 PETER LOBEL
p2250
g3
(g4
g5
NtRp2251
(dp2252
g8
g2250
sg9
V00001
p2253
sg11
V00000
p2254
sg13
V00000
p2255
sg15
g72
sg17
V00000
p2256
sbsV#05 AUSTIN ENGEL
p2257
g3
(g4
g5
NtRp2258
(dp2259
g8
g2257
sg9
V42401
p2260
sg11
V00203
p2261
sg13
V00010
p2262
sg15
g80
sg17
V20100
p2263
sbsV#06 JAMES HIGHSMITH
p2264
g3
(g4
g5
NtRp2265
(dp2266
g8
g2264
sg9
V13112
p2267
sg11
V21503
p2268
sg13
V12005
p2269
sg15
g80
sg17
V11103
p2270
sbsV#20 KYLE POTKAY
p2271
g3
(g4
g5
NtRp2272
(dp2273
g8
g2271
sg9
V00000
p2274
sg11
V00000
p2275
sg13
V00000
p2276
sg15
g64
sg17
V00000
p2277
sbsV#32 JARED SCHUELER
p2278
g3
(g4
g5
NtRp2279
(dp2280
g8
g2278
sg9
V00000
p2281
sg11
V00000
p2282
sg13
V00100
p2283
sg15
g426
sg17
V00000
p2284
sbsV#38 FRASIER LILJESTRAND
p2285
g3
(g4
g5
NtRp2286
(dp2287
g8
g2285
sg9
V00000
p2288
sg11
V00000
p2289
sg13
V00000
p2290
sg15
g16
sg17
V00000
p2291
sbsV#23 GRAEME KERNICK
p2292
g3
(g4
g5
NtRp2293
(dp2294
g8
g2292
sg9
V001001
p2295
sg11
V100000
p2296
sg13
V000000
p2297
sg15
g186
sg17
V000000
p2298
sbsV#01 ANDREW OROURKE
p2299
g3
(g4
g5
NtRp2300
(dp2301
g8
g2299
sg9
V10000
p2302
sg11
V00000
p2303
sg13
V01100
p2304
sg15
g16
sg17
V00000
p2305
sbsV#12 MATT HELMS
p2306
g3
(g4
g5
NtRp2307
(dp2308
g8
g2306
sg9
V00000
p2309
sg11
V00100
p2310
sg13
V11000
p2311
sg15
g194
sg17
V00100
p2312
sbsV#22 CHRISTOPHER LEBLANC
p2313
g3
(g4
g5
NtRp2314
(dp2315
g8
g2313
sg9
V0000000
p2316
sg11
V0000000
p2317
sg13
V0000000
p2318
sg15
g125
sg17
V0000000
p2319
sbsV#11 ARTHUR BLEDSOE
p2320
g3
(g4
g5
NtRp2321
(dp2322
g8
g2320
sg9
V20220
p2323
sg11
V01212
p2324
sg13
V11111
p2325
sg15
g72
sg17
V00100
p2326
sbsV#34 CODY HOLLOWAY
p2327
g3
(g4
g5
NtRp2328
(dp2329
g8
g2327
sg9
V001210
p2330
sg11
V000100
p2331
sg13
V001010
p2332
sg15
g490
sg17
V000000
p2333
sbsV#16 MICHAEL HAYS
p2334
g3
(g4
g5
NtRp2335
(dp2336
g8
g2334
sg9
V000102
p2337
sg11
V012001
p2338
sg13
V001000
p2339
sg15
g490
sg17
V110200
p2340
sbsV#12 WAYDE VOSS
p2341
g3
(g4
g5
NtRp2342
(dp2343
g8
g2341
sg9
V00011
p2344
sg11
V01000
p2345
sg13
V01000
p2346
sg15
g568
sg17
V00000
p2347
sbsV#28 JUSTIN LIN
p2348
g3
(g4
g5
NtRp2349
(dp2350
g8
g2348
sg9
V00001
p2351
sg11
V00000
p2352
sg13
V00000
p2353
sg15
g178
sg17
V00000
p2354
sbsV#09 WILLIAM MCGEE
p2355
g3
(g4
g5
NtRp2356
(dp2357
g8
g2355
sg9
V0000000
p2358
sg11
V0000000
p2359
sg13
V0010000
p2360
sg15
g125
sg17
V0000000
p2361
sbsV#06 MARCUS JOHNS
p2362
g3
(g4
g5
NtRp2363
(dp2364
g8
g2362
sg9
V00000
p2365
sg11
V00000
p2366
sg13
V00000
p2367
sg15
g568
sg17
V00001
p2368
sbsV#11 JACK WILLIAMS
p2369
g3
(g4
g5
NtRp2370
(dp2371
g8
g2369
sg9
V0200101
p2372
sg11
V0001003
p2373
sg13
V5406302
p2374
sg15
g125
sg17
V0100101
p2375
sbsV#32 DAVID LYLE
p2376
g3
(g4
g5
NtRp2377
(dp2378
g8
g2376
sg9
V11010
p2379
sg11
V10001
p2380
sg13
V00000
p2381
sg15
g48
sg17
V01000
p2382
sbsV#06 DANIEL EHRIG
p2383
g3
(g4
g5
NtRp2384
(dp2385
g8
g2383
sg9
V00010
p2386
sg11
V21000
p2387
sg13
V10020
p2388
sg15
g426
sg17
V01000
p2389
sbsV#74 STUART LITTLE
p2390
g3
(g4
g5
NtRp2391
(dp2392
g8
g2390
sg9
V00011
p2393
sg11
V00120
p2394
sg13
V01101
p2395
sg15
g194
sg17
V10201
p2396
sbsV#82 ARIEL RASCOE
p2397
g3
(g4
g5
NtRp2398
(dp2399
g8
g2397
sg9
V00000
p2400
sg11
V00000
p2401
sg13
V00000
p2402
sg15
g48
sg17
V00000
p2403
sbsV#33 BRIAN BENGE
p2404
g3
(g4
g5
NtRp2405
(dp2406
g8
g2404
sg9
V01010
p2407
sg11
V00104
p2408
sg13
V01311
p2409
sg15
g88
sg17
V00000
p2410
sbsV#12 BENJAMIN SCHARFSTEIN
p2411
g3
(g4
g5
NtRp2412
(dp2413
g8
g2411
sg9
V10002
p2414
sg11
V10000
p2415
sg13
V00000
p2416
sg15
g16
sg17
V00100
p2417
sbsV#14 NICK MACLEOD
p2418
g3
(g4
g5
NtRp2419
(dp2420
g8
g2418
sg9
V0020000
p2421
sg11
V0130000
p2422
sg13
V0010000
p2423
sg15
g96
sg17
V0000000
p2424
sbsV#13 ANDREW COHEN
p2425
g3
(g4
g5
NtRp2426
(dp2427
g8
g2425
sg9
V0100001
p2428
sg11
V0020020
p2429
sg13
V0110000
p2430
sg15
g96
sg17
V0000010
p2431
sbsV#13 ALBERTO ALARCON
p2432
g3
(g4
g5
NtRp2433
(dp2434
g8
g2432
sg9
V10200
p2435
sg11
V21003
p2436
sg13
V10403
p2437
sg15
g64
sg17
V10300
p2438
sbsV#18 Stephen Shaw
p2439
g3
(g4
g5
NtRp2440
(dp2441
g8
g2439
sg9
V00000
p2442
sg11
V00000
p2443
sg13
V00000
p2444
sg15
g25
sg17
V00000
p2445
sbsV#59 AARON WATSON
p2446
g3
(g4
g5
NtRp2447
(dp2448
g8
g2446
sg9
V20111
p2449
sg11
V01020
p2450
sg13
V05213
p2451
sg15
g25
sg17
V00020
p2452
sbsV#03 John Abuhamad
p2453
g3
(g4
g5
NtRp2454
(dp2455
g8
g2453
sg9
V00200
p2456
sg11
V00000
p2457
sg13
V00000
p2458
sg15
g426
sg17
V00100
p2459
sbsV#02 RYAN KERR
p2460
g3
(g4
g5
NtRp2461
(dp2462
g8
g2460
sg9
V00000
p2463
sg11
V00000
p2464
sg13
V00000
p2465
sg15
g16
sg17
V00000
p2466
sbsV#02 MATTHEW NORTHAM
p2467
g3
(g4
g5
NtRp2468
(dp2469
g8
g2467
sg9
V00000
p2470
sg11
V00000
p2471
sg13
V00100
p2472
sg15
g194
sg17
V00000
p2473
sbsV#06 Garrett Idler
p2474
g3
(g4
g5
NtRp2475
(dp2476
g8
g2474
sg9
V000000
p2477
sg11
V000000
p2478
sg13
V000000
p2479
sg15
g490
sg17
V000000
p2480
sbsV#19 COLLIN MACKETT
p2481
g3
(g4
g5
NtRp2482
(dp2483
g8
g2481
sg9
V00000
p2484
sg11
V00000
p2485
sg13
V00000
p2486
sg15
g194
sg17
V00000
p2487
sbsV#15 alexander belanger
p2488
g3
(g4
g5
NtRp2489
(dp2490
g8
g2488
sg9
V00020
p2491
sg11
V00010
p2492
sg13
V20110
p2493
sg15
g80
sg17
V00020
p2494
sbsV#15 DYLAN BEST
p2495
g3
(g4
g5
NtRp2496
(dp2497
g8
g2495
sg9
V00000
p2498
sg11
V00000
p2499
sg13
V00020
p2500
sg15
g25
sg17
V00000
p2501
sbsV#77 BRIAN PENNER
p2502
g3
(g4
g5
NtRp2503
(dp2504
g8
g2502
sg9
V100000
p2505
sg11
V011210
p2506
sg13
V000130
p2507
sg15
g56
sg17
V000000
p2508
sbsV#10 JOHN RAYNOLDS
p2509
g3
(g4
g5
NtRp2510
(dp2511
g8
g2509
sg9
V00000
p2512
sg11
V00000
p2513
sg13
V00000
p2514
sg15
g40
sg17
V00000
p2515
sbsV#22 RYAN MACFADYEN
p2516
g3
(g4
g5
NtRp2517
(dp2518
g8
g2516
sg9
V10110
p2519
sg11
V12103
p2520
sg13
V12103
p2521
sg15
g568
sg17
V21000
p2522
sbsV#81 YONATAN (YONI) RAFAEL
p2523
g3
(g4
g5
NtRp2524
(dp2525
g8
g2523
sg9
V101121
p2526
sg11
V403313
p2527
sg13
V103020
p2528
sg15
g148
sg17
V100110
p2529
sbsV#33 JOHN BEST
p2530
g3
(g4
g5
NtRp2531
(dp2532
g8
g2530
sg9
V12310
p2533
sg11
V51202
p2534
sg13
V11422
p2535
sg15
g194
sg17
V00000
p2536
sbsV#21 TRAVIS COMPO
p2537
g3
(g4
g5
NtRp2538
(dp2539
g8
g2537
sg9
V000100
p2540
sg11
V000000
p2541
sg13
V000000
p2542
sg15
g148
sg17
V000000
p2543
sbsV#91 RUSSELL HANSON
p2544
g3
(g4
g5
NtRp2545
(dp2546
g8
g2544
sg9
V10000
p2547
sg11
V00001
p2548
sg13
V00000
p2549
sg15
g40
sg17
V00000
p2550
sbsV#13 SIMON JOHANSEN
p2551
g3
(g4
g5
NtRp2552
(dp2553
g8
g2551
sg9
V11301
p2554
sg11
V00100
p2555
sg13
V11021
p2556
sg15
g40
sg17
V00000
p2557
sbsV#14 WILLIAM KLUENDER
p2558
g3
(g4
g5
NtRp2559
(dp2560
g8
g2558
sg9
V201101
p2561
sg11
V010000
p2562
sg13
V302111
p2563
sg15
g186
sg17
V000110
p2564
sbsV#25 WES WELCH
p2565
g3
(g4
g5
NtRp2566
(dp2567
g8
g2565
sg9
V00000
p2568
sg11
V00000
p2569
sg13
V00000
p2570
sg15
g16
sg17
V00000
p2571
sbsV#23 JON XU
p2572
g3
(g4
g5
NtRp2573
(dp2574
g8
g2572
sg9
V12011
p2575
sg11
V11010
p2576
sg13
V00000
p2577
sg15
g72
sg17
V00000
p2578
sbsV#03 JAMES HASTINGS
p2579
g3
(g4
g5
NtRp2580
(dp2581
g8
g2579
sg9
V0010000
p2582
sg11
V0100000
p2583
sg13
V0020000
p2584
sg15
g96
sg17
V0010000
p2585
sbsV#18 PAXTON HARVIEUX
p2586
g3
(g4
g5
NtRp2587
(dp2588
g8
g2586
sg9
V00000
p2589
sg11
V00000
p2590
sg13
V00000
p2591
sg15
g40
sg17
V00000
p2592
sbsV#08 HAGEN FRITZ
p2593
g3
(g4
g5
NtRp2594
(dp2595
g8
g2593
sg9
V010000
p2596
sg11
V000000
p2597
sg13
V000001
p2598
sg15
g490
sg17
V021001
p2599
sbsV#64 DAVID KLINGES
p2600
g3
(g4
g5
NtRp2601
(dp2602
g8
g2600
sg9
V00000
p2603
sg11
V00000
p2604
sg13
V00000
p2605
sg15
g72
sg17
V00000
p2606
sbsV#48 CHARLES HYDE
p2607
g3
(g4
g5
NtRp2608
(dp2609
g8
g2607
sg9
V000010
p2610
sg11
V000010
p2611
sg13
V000000
p2612
sg15
g148
sg17
V000000
p2613
sbsV#66 CHEN SU
p2614
g3
(g4
g5
NtRp2615
(dp2616
g8
g2614
sg9
V00010
p2617
sg11
V00010
p2618
sg13
V00000
p2619
sg15
g25
sg17
V00000
p2620
sbsV#34 JESSE BUCHSBAUM
p2621
g3
(g4
g5
NtRp2622
(dp2623
g8
g2621
sg9
V100012
p2624
sg11
V100103
p2625
sg13
V215402
p2626
sg15
g148
sg17
V000000
p2627
sbsV#01 JAMES LAI
p2628
g3
(g4
g5
NtRp2629
(dp2630
g8
g2628
sg9
V01000
p2631
sg11
V20000
p2632
sg13
V34403
p2633
sg15
g178
sg17
V00001
p2634
sbsV#01 ANDREW PURUGGANAN
p2635
g3
(g4
g5
NtRp2636
(dp2637
g8
g2635
sg9
V000000
p2638
sg11
V000000
p2639
sg13
V100000
p2640
sg15
g148
sg17
V000000
p2641
sbsV#12 BRENNEN ZINCKGRAF
p2642
g3
(g4
g5
NtRp2643
(dp2644
g8
g2642
sg9
V00000
p2645
sg11
V00002
p2646
sg13
V00004
p2647
sg15
g88
sg17
V00002
p2648
sbsV#23 PETER VAN BRUSSEL
p2649
g3
(g4
g5
NtRp2650
(dp2651
g8
g2649
sg9
V00000
p2652
sg11
V00000
p2653
sg13
V00000
p2654
sg15
g568
sg17
V00000
p2655
sbsV#21 TYLER MAHONY
p2656
g3
(g4
g5
NtRp2657
(dp2658
g8
g2656
sg9
V00101
p2659
sg11
V02021
p2660
sg13
V03010
p2661
sg15
g40
sg17
V11030
p2662
sbsV#17 Thomas GALLAGHER
p2663
g3
(g4
g5
NtRp2664
(dp2665
g8
g2663
sg9
V200000
p2666
sg11
V000001
p2667
sg13
V000000
p2668
sg15
g186
sg17
V000000
p2669
sbsV#08 ELI LEONARD
p2670
g3
(g4
g5
NtRp2671
(dp2672
g8
g2670
sg9
V002135
p2673
sg11
V305211
p2674
sg13
V000001
p2675
sg15
g148
sg17
V000000
p2676
sbsV#17 ELIJAH GRAVES
p2677
g3
(g4
g5
NtRp2678
(dp2679
g8
g2677
sg9
V001000
p2680
sg11
V001010
p2681
sg13
V000000
p2682
sg15
g148
sg17
V001000
p2683
sbsV#84 CRAIG COX
p2684
g3
(g4
g5
NtRp2685
(dp2686
g8
g2684
sg9
V101300
p2687
sg11
V113013
p2688
sg13
V000111
p2689
sg15
g186
sg17
V000010
p2690
sbsV#30 CARLOS VARGAS
p2691
g3
(g4
g5
NtRp2692
(dp2693
g8
g2691
sg9
V033320
p2694
sg11
V212050
p2695
sg13
V100001
p2696
sg15
g490
sg17
V000000
p2697
sbsV#33 Steven Chung
p2698
g3
(g4
g5
NtRp2699
(dp2700
g8
g2698
sg9
V00000
p2701
sg11
V00000
p2702
sg13
V00000
p2703
sg15
g178
sg17
V00000
p2704
sbsV#22 ALEXANDER HEM
p2705
g3
(g4
g5
NtRp2706
(dp2707
g8
g2705
sg9
V00000
p2708
sg11
V00000
p2709
sg13
V30110
p2710
sg15
g16
sg17
V00200
p2711
sbsV#26 STANLEY PETERSON
p2712
g3
(g4
g5
NtRp2713
(dp2714
g8
g2712
sg9
V0010030
p2715
sg11
V0010031
p2716
sg13
V0001021
p2717
sg15
g156
sg17
V1002020
p2718
sbsV#20 DAVID FRIEDMAN
p2719
g3
(g4
g5
NtRp2720
(dp2721
g8
g2719
sg9
V00102
p2722
sg11
V00000
p2723
sg13
V10000
p2724
sg15
g72
sg17
V00000
p2725
sbsV#99 MATTHEW ABERMAN
p2726
g3
(g4
g5
NtRp2727
(dp2728
g8
g2726
sg9
V00000
p2729
sg11
V00000
p2730
sg13
V00000
p2731
sg15
g194
sg17
V00100
p2732
sbsV#04 KYLE REEDY
p2733
g3
(g4
g5
NtRp2734
(dp2735
g8
g2733
sg9
V01100
p2736
sg11
V00201
p2737
sg13
V00000
p2738
sg15
g194
sg17
V20314
p2739
sbsV#15 VIKRAM SETHURAMAN
p2740
g3
(g4
g5
NtRp2741
(dp2742
g8
g2740
sg9
V0000101
p2743
sg11
V1000000
p2744
sg13
V0202122
p2745
sg15
g96
sg17
V0001000
p2746
sbsV#00 BRIAN NOVOTNY
p2747
g3
(g4
g5
NtRp2748
(dp2749
g8
g2747
sg9
V101000
p2750
sg11
V101000
p2751
sg13
V101011
p2752
sg15
g186
sg17
V100010
p2753
sbsV#18 Dain Nielsen
p2754
g3
(g4
g5
NtRp2755
(dp2756
g8
g2754
sg9
V0000012
p2757
sg11
V0100000
p2758
sg13
V0000000
p2759
sg15
g96
sg17
V0200000
p2760
sbsV#16 TRENT DILLON
p2761
g3
(g4
g5
NtRp2762
(dp2763
g8
g2761
sg9
V00111
p2764
sg11
V10002
p2765
sg13
V00010
p2766
sg15
g25
sg17
V00100
p2767
sbsV#03 ANDREW RONEY
p2768
g3
(g4
g5
NtRp2769
(dp2770
g8
g2768
sg9
V726512
p2771
sg11
V34365
p2772
sg13
V12130
p2773
sg15
g568
sg17
V21011
p2774
sbsV#06 JAMES THURM
p2775
g3
(g4
g5
NtRp2776
(dp2777
g8
g2775
sg9
V00010
p2778
sg11
V00000
p2779
sg13
V00000
p2780
sg15
g16
sg17
V00000
p2781
sbsV#73 BRIAN SCHUMM
p2782
g3
(g4
g5
NtRp2783
(dp2784
g8
g2782
sg9
V00000
p2785
sg11
V00000
p2786
sg13
V00000
p2787
sg15
g64
sg17
V00000
p2788
sbsV#18 DANIEL DETONE
p2789
g3
(g4
g5
NtRp2790
(dp2791
g8
g2789
sg9
V000020
p2792
sg11
V000000
p2793
sg13
V000300
p2794
sg15
g148
sg17
V000000
p2795
sbsV#19 MIGAL MANICKARAJ
p2796
g3
(g4
g5
NtRp2797
(dp2798
g8
g2796
sg9
V00000
p2799
sg11
V00000
p2800
sg13
V00000
p2801
sg15
g178
sg17
V00000
p2802
sbsV#72 JOSH HIRSCHMAN
p2803
g3
(g4
g5
NtRp2804
(dp2805
g8
g2803
sg9
V00000
p2806
sg11
V00000
p2807
sg13
V00000
p2808
sg15
g140
sg17
V00000
p2809
sbsV#28 AARON RASKIN
p2810
g3
(g4
g5
NtRp2811
(dp2812
g8
g2810
sg9
V02000
p2813
sg11
V01000
p2814
sg13
V00000
p2815
sg15
g140
sg17
V00000
p2816
sbsV#56 KYLE GIBBONS
p2817
g3
(g4
g5
NtRp2818
(dp2819
g8
g2817
sg9
V0000000
p2820
sg11
V0000000
p2821
sg13
V0000000
p2822
sg15
g125
sg17
V0000000
p2823
sbsV#21 CHRISTIAN WEISENBACHER
p2824
g3
(g4
g5
NtRp2825
(dp2826
g8
g2824
sg9
V00000
p2827
sg11
V00001
p2828
sg13
V00000
p2829
sg15
g64
sg17
V00000
p2830
sbsV#48 David Miller
p2831
g3
(g4
g5
NtRp2832
(dp2833
g8
g2831
sg9
V000000
p2834
sg11
V001000
p2835
sg13
V000000
p2836
sg15
g490
sg17
V000000
p2837
sbsV#08 SAM DUSHAY
p2838
g3
(g4
g5
NtRp2839
(dp2840
g8
g2838
sg9
V10001
p2841
sg11
V00000
p2842
sg13
V00100
p2843
sg15
g48
sg17
V00010
p2844
sbsV#17 ANDREW RANON
p2845
g3
(g4
g5
NtRp2846
(dp2847
g8
g2845
sg9
V00000
p2848
sg11
V00000
p2849
sg13
V00000
p2850
sg15
g88
sg17
V00000
p2851
sbsV#77 Gavriel Gelbart
p2852
g3
(g4
g5
NtRp2853
(dp2854
g8
g2852
sg9
V00000
p2855
sg11
V00100
p2856
sg13
V00000
p2857
sg15
g178
sg17
V00100
p2858
sbsV#11 DUNCAN SALLSTROM
p2859
g3
(g4
g5
NtRp2860
(dp2861
g8
g2859
sg9
V10101
p2862
sg11
V00000
p2863
sg13
V00000
p2864
sg15
g40
sg17
V00000
p2865
sbsV#08 PAWEL JANAS
p2866
g3
(g4
g5
NtRp2867
(dp2868
g8
g2866
sg9
V0010101
p2869
sg11
V2101110
p2870
sg13
V0121010
p2871
sg15
g156
sg17
V0010110
p2872
sbsV#43 DANIEL O'CONNOR
p2873
g3
(g4
g5
NtRp2874
(dp2875
g8
g2873
sg9
V00000
p2876
sg11
V00011
p2877
sg13
V20210
p2878
sg15
g25
sg17
V00000
p2879
sbsV#87 CHRISTOPHER BONNER
p2880
g3
(g4
g5
NtRp2881
(dp2882
g8
g2880
sg9
V00000
p2883
sg11
V00000
p2884
sg13
V00000
p2885
sg15
g178
sg17
V00000
p2886
sbsV#46 BRIAN PHILLIPS
p2887
g3
(g4
g5
NtRp2888
(dp2889
g8
g2887
sg9
V11000
p2890
sg11
V00001
p2891
sg13
V00010
p2892
sg15
g568
sg17
V00000
p2893
sbsV#55 CONNOR MATTHEWS
p2894
g3
(g4
g5
NtRp2895
(dp2896
g8
g2894
sg9
V100000
p2897
sg11
V010000
p2898
sg13
V125231
p2899
sg15
g56
sg17
V112000
p2900
sbsV#20 CHARLIE SHAFFNER
p2901
g3
(g4
g5
NtRp2902
(dp2903
g8
g2901
sg9
V0000020
p2904
sg11
V0101000
p2905
sg13
V1202010
p2906
sg15
g96
sg17
V0001000
p2907
sbsV#32 AUSTIN MALONE
p2908
g3
(g4
g5
NtRp2909
(dp2910
g8
g2908
sg9
V00000
p2911
sg11
V00000
p2912
sg13
V00000
p2913
sg15
g194
sg17
V00000
p2914
sbsV#20 MATT MASON
p2915
g3
(g4
g5
NtRp2916
(dp2917
g8
g2915
sg9
V0001000
p2918
sg11
V0020000
p2919
sg13
V0010010
p2920
sg15
g125
sg17
V0001000
p2921
sbsV#28 ANDREW NELSON
p2922
g3
(g4
g5
NtRp2923
(dp2924
g8
g2922
sg9
V0000100
p2925
sg11
V1000100
p2926
sg13
V0001001
p2927
sg15
g156
sg17
V2000000
p2928
sbsV#12 KYLE ZAWIEJA
p2929
g3
(g4
g5
NtRp2930
(dp2931
g8
g2929
sg9
V00000
p2932
sg11
V00000
p2933
sg13
V00100
p2934
sg15
g426
sg17
V00010
p2935
sbsV#24 JONATHAN NETHERCUTT
p2936
g3
(g4
g5
NtRp2937
(dp2938
g8
g2936
sg9
V0305343
p2939
sg11
V9206538
p2940
sg13
V0001111
p2941
sg15
g96
sg17
V0100110
p2942
sbsV#41 COLIN SUNDE
p2943
g3
(g4
g5
NtRp2944
(dp2945
g8
g2943
sg9
V000010
p2946
sg11
V200102
p2947
sg13
V011000
p2948
sg15
g186
sg17
V100000
p2949
sbsV#10 CONNOR BREEN
p2950
g3
(g4
g5
NtRp2951
(dp2952
g8
g2950
sg9
V000000
p2953
sg11
V100000
p2954
sg13
V010000
p2955
sg15
g490
sg17
V100000
p2956
sbsV#11 DAVID NA
p2957
g3
(g4
g5
NtRp2958
(dp2959
g8
g2957
sg9
V00010
p2960
sg11
V31010
p2961
sg13
V31130
p2962
sg15
g426
sg17
V01010
p2963
sbsV#47 MARK BUNNELL
p2964
g3
(g4
g5
NtRp2965
(dp2966
g8
g2964
sg9
V00000
p2967
sg11
V00000
p2968
sg13
V00000
p2969
sg15
g178
sg17
V00000
p2970
sbsV#02 JOSEPH BENDER
p2971
g3
(g4
g5
NtRp2972
(dp2973
g8
g2971
sg9
V00000
p2974
sg11
V00000
p2975
sg13
V00000
p2976
sg15
g25
sg17
V00000
p2977
sbsV#01 BRAWLEY ADAMS
p2978
g3
(g4
g5
NtRp2979
(dp2980
g8
g2978
sg9
V02031
p2981
sg11
V21555
p2982
sg13
V02000
p2983
sg15
g194
sg17
V00000
p2984
sbsV#44 NICHOLAS LADAS
p2985
g3
(g4
g5
NtRp2986
(dp2987
g8
g2985
sg9
V002010
p2988
sg11
V101101
p2989
sg13
V000001
p2990
sg15
g186
sg17
V100000
p2991
sbsV#12 DREW CHANDLER
p2992
g3
(g4
g5
NtRp2993
(dp2994
g8
g2992
sg9
V0201030
p2995
sg11
V0201010
p2996
sg13
V0101100
p2997
sg15
g96
sg17
V0000021
p2998
sbsV#15 CHAD RUSSOM
p2999
g3
(g4
g5
NtRp3000
(dp3001
g8
g2999
sg9
V00000
p3002
sg11
V00000
p3003
sg13
V00000
p3004
sg15
g194
sg17
V00000
p3005
sbsV#88 DAN WICKENS
p3006
g3
(g4
g5
NtRp3007
(dp3008
g8
g3006
sg9
V00000
p3009
sg11
V00000
p3010
sg13
V00000
p3011
sg15
g25
sg17
V00000
p3012
sbsV#02 MATTHEW REESE
p3013
g3
(g4
g5
NtRp3014
(dp3015
g8
g3013
sg9
V000000
p3016
sg11
V100000
p3017
sg13
V001000
p3018
sg15
g490
sg17
V010000
p3019
sbsV#14 CONNOR WILLIAMSON
p3020
g3
(g4
g5
NtRp3021
(dp3022
g8
g3020
sg9
V000010
p3023
sg11
V000000
p3024
sg13
V000000
p3025
sg15
g56
sg17
V000000
p3026
sbsV#07 JORDAN TAYLOR
p3027
g3
(g4
g5
NtRp3028
(dp3029
g8
g3027
sg9
V010000
p3030
sg11
V000000
p3031
sg13
V000100
p3032
sg15
g490
sg17
V100000
p3033
sbsV#47 SETH CALHOUN
p3034
g3
(g4
g5
NtRp3035
(dp3036
g8
g3034
sg9
V00000
p3037
sg11
V00000
p3038
sg13
V00000
p3039
sg15
g194
sg17
V00000
p3040
sbsV#10 JORDAN O'NEILL
p3041
g3
(g4
g5
NtRp3042
(dp3043
g8
g3041
sg9
V000110
p3044
sg11
V020101
p3045
sg13
V024321
p3046
sg15
g186
sg17
V001001
p3047
sbsV#33 CONNOR KAZMIERCZAK
p3048
g3
(g4
g5
NtRp3049
(dp3050
g8
g3048
sg9
V00000
p3051
sg11
V00000
p3052
sg13
V00110
p3053
sg15
g25
sg17
V00001
p3054
sbsV#48 BENJAMIN CAFFREY
p3055
g3
(g4
g5
NtRp3056
(dp3057
g8
g3055
sg9
V00301
p3058
sg11
V54111
p3059
sg13
V30200
p3060
sg15
g40
sg17
V00010
p3061
sbsV#31 Doug Terza
p3062
g3
(g4
g5
NtRp3063
(dp3064
g8
g3062
sg9
V01000
p3065
sg11
V10000
p3066
sg13
V02010
p3067
sg15
g88
sg17
V00000
p3068
sbsV#18 KEVIN LAND
p3069
g3
(g4
g5
NtRp3070
(dp3071
g8
g3069
sg9
V00000
p3072
sg11
V00000
p3073
sg13
V00000
p3074
sg15
g426
sg17
V00000
p3075
sbsV#12 ROBERT GOODE
p3076
g3
(g4
g5
NtRp3077
(dp3078
g8
g3076
sg9
V0000012
p3079
sg11
V1000110
p3080
sg13
V0031011
p3081
sg15
g125
sg17
V0000000
p3082
sbsV#22 JOSHUA OSINSKI
p3083
g3
(g4
g5
NtRp3084
(dp3085
g8
g3083
sg9
V00000
p3086
sg11
V00000
p3087
sg13
V10100
p3088
sg15
g80
sg17
V00001
p3089
sbsV#05 BRIAN LUONG
p3090
g3
(g4
g5
NtRp3091
(dp3092
g8
g3090
sg9
V0000000
p3093
sg11
V0000001
p3094
sg13
V0000000
p3095
sg15
g96
sg17
V0000000
p3096
sbsV#05 CARTER THALLON
p3097
g3
(g4
g5
NtRp3098
(dp3099
g8
g3097
sg9
V11201
p3100
sg11
V14121
p3101
sg13
V13212
p3102
sg15
g48
sg17
V00101
p3103
sbsV#95 NATAN LEE-ENGEL
p3104
g3
(g4
g5
NtRp3105
(dp3106
g8
g3104
sg9
V01001
p3107
sg11
V01001
p3108
sg13
V12244
p3109
sg15
g40
sg17
V00000
p3110
sbsV#07 MAXWELL PERHAM
p3111
g3
(g4
g5
NtRp3112
(dp3113
g8
g3111
sg9
V00000
p3114
sg11
V00002
p3115
sg13
V00100
p3116
sg15
g140
sg17
V10101
p3117
sbsV#21 ZACHARY MAINES
p3118
g3
(g4
g5
NtRp3119
(dp3120
g8
g3118
sg9
V00010
p3121
sg11
V00000
p3122
sg13
V00000
p3123
sg15
g568
sg17
V00000
p3124
sbsV#07 BENJAMIN LEWIS
p3125
g3
(g4
g5
NtRp3126
(dp3127
g8
g3125
sg9
V01200
p3128
sg11
V00100
p3129
sg13
V22120
p3130
sg15
g426
sg17
V00000
p3131
sbsV#16 DANIEL  STULIGROSS
p3132
g3
(g4
g5
NtRp3133
(dp3134
g8
g3132
sg9
V000210
p3135
sg11
V011211
p3136
sg13
V010010
p3137
sg15
g186
sg17
V000000
p3138
sbsV#99 PARKER GRISSOM
p3139
g3
(g4
g5
NtRp3140
(dp3141
g8
g3139
sg9
V0000000
p3142
sg11
V0000000
p3143
sg13
V0010000
p3144
sg15
g125
sg17
V0000000
p3145
sbsV#15 RYAN SCHECHTMAN
p3146
g3
(g4
g5
NtRp3147
(dp3148
g8
g3146
sg9
V100001
p3149
sg11
V000000
p3150
sg13
V101111
p3151
sg15
g148
sg17
V000101
p3152
sbsV#21 ALEX THEISS
p3153
g3
(g4
g5
NtRp3154
(dp3155
g8
g3153
sg9
V20200
p3156
sg11
V10111
p3157
sg13
V12301
p3158
sg15
g80
sg17
V01000
p3159
sbsV#08 PAUL MORIMOTO
p3160
g3
(g4
g5
NtRp3161
(dp3162
g8
g3160
sg9
V01001
p3163
sg11
V21000
p3164
sg13
V01200
p3165
sg15
g178
sg17
V01000
p3166
sbsV#11 JACOB DUMMELDINGER
p3167
g3
(g4
g5
NtRp3168
(dp3169
g8
g3167
sg9
V10000
p3170
sg11
V10021
p3171
sg13
V22100
p3172
sg15
g88
sg17
V01000
p3173
sbsV#99 GABRIEL BIDOT
p3174
g3
(g4
g5
NtRp3175
(dp3176
g8
g3174
sg9
V03010
p3177
sg11
V00000
p3178
sg13
V00000
p3179
sg15
g568
sg17
V01010
p3180
sbsV#01 EVAN RHEINGOLD
p3181
g3
(g4
g5
NtRp3182
(dp3183
g8
g3181
sg9
V00101
p3184
sg11
V10000
p3185
sg13
V00001
p3186
sg15
g72
sg17
V10100
p3187
sbsV#38 JONAH WISCH
p3188
g3
(g4
g5
NtRp3189
(dp3190
g8
g3188
sg9
V00000
p3191
sg11
V10000
p3192
sg13
V00000
p3193
sg15
g25
sg17
V00000
p3194
sbsV#13 Nash Mock
p3195
g3
(g4
g5
NtRp3196
(dp3197
g8
g3195
sg9
V000000
p3198
sg11
V010000
p3199
sg13
V020000
p3200
sg15
g490
sg17
V000000
p3201
sbsV#22 AARON SPEISS
p3202
g3
(g4
g5
NtRp3203
(dp3204
g8
g3202
sg9
V100000
p3205
sg11
V000000
p3206
sg13
V000001
p3207
sg15
g186
sg17
V200010
p3208
sbsV#02 BILLY O'BRYAN
p3209
g3
(g4
g5
NtRp3210
(dp3211
g8
g3209
sg9
V01000
p3212
sg11
V00001
p3213
sg13
V00010
p3214
sg15
g88
sg17
V00000
p3215
sbsV#11 SCOTT XU
p3216
g3
(g4
g5
NtRp3217
(dp3218
g8
g3216
sg9
V11101
p3219
sg11
V42201
p3220
sg13
V30002
p3221
sg15
g64
sg17
V00000
p3222
sbsV#11 JOSHUA CRANE
p3223
g3
(g4
g5
NtRp3224
(dp3225
g8
g3223
sg9
V1000000
p3226
sg11
V0000000
p3227
sg13
V0000100
p3228
sg15
g156
sg17
V1000000
p3229
sbsV#05 SAM GREENWOOD
p3230
g3
(g4
g5
NtRp3231
(dp3232
g8
g3230
sg9
V001120
p3233
sg11
V210310
p3234
sg13
V300100
p3235
sg15
g148
sg17
V000200
p3236
sbsV#08 ALEX  BULLOCK
p3237
g3
(g4
g5
NtRp3238
(dp3239
g8
g3237
sg9
V00200
p3240
sg11
V01000
p3241
sg13
V00110
p3242
sg15
g194
sg17
V00000
p3243
sbsV#14 Austin Bass
p3244
g3
(g4
g5
NtRp3245
(dp3246
g8
g3244
sg9
V00000
p3247
sg11
V00000
p3248
sg13
V00000
p3249
sg15
g568
sg17
V00000
p3250
sbsV#16 HENRY FROST
p3251
g3
(g4
g5
NtRp3252
(dp3253
g8
g3251
sg9
V12011
p3254
sg11
V10211
p3255
sg13
V00020
p3256
sg15
g72
sg17
V00010
p3257
sbsV#09 ERIK JORGENSEN
p3258
g3
(g4
g5
NtRp3259
(dp3260
g8
g3258
sg9
V100000
p3261
sg11
V000000
p3262
sg13
V101100
p3263
sg15
g186
sg17
V100110
p3264
sbsV#33 DAVID CLEMENS-SEWALL
p3265
g3
(g4
g5
NtRp3266
(dp3267
g8
g3265
sg9
V12001
p3268
sg11
V00000
p3269
sg13
V01011
p3270
sg15
g72
sg17
V00000
p3271
sbsV#33 CONOR ECKERT
p3272
g3
(g4
g5
NtRp3273
(dp3274
g8
g3272
sg9
V00000
p3275
sg11
V00000
p3276
sg13
V00000
p3277
sg15
g40
sg17
V00000
p3278
sbsV#00 JASON ALEXANDER
p3279
g3
(g4
g5
NtRp3280
(dp3281
g8
g3279
sg9
V0001001
p3282
sg11
V0000000
p3283
sg13
V0010000
p3284
sg15
g125
sg17
V0000000
p3285
sbsV#27 ELLIOT MAWBY
p3286
g3
(g4
g5
NtRp3287
(dp3288
g8
g3286
sg9
V01000
p3289
sg11
V00000
p3290
sg13
V00000
p3291
sg15
g40
sg17
V01000
p3292
sbsV#06 DANIEL BISHOP
p3293
g3
(g4
g5
NtRp3294
(dp3295
g8
g3293
sg9
V00000
p3296
sg11
V01000
p3297
sg13
V21212
p3298
sg15
g88
sg17
V00020
p3299
sbsV#80 XAVIER MAXSTADT
p3300
g3
(g4
g5
NtRp3301
(dp3302
g8
g3300
sg9
V0601553
p3303
sg11
V2343203
p3304
sg13
V2000000
p3305
sg15
g125
sg17
V0001010
p3306
sbsV#07 AVERY JOHNSON
p3307
g3
(g4
g5
NtRp3308
(dp3309
g8
g3307
sg9
V001112
p3310
sg11
V011110
p3311
sg13
V001000
p3312
sg15
g186
sg17
V000000
p3313
sbsV#88 Jonathan Nance
p3314
g3
(g4
g5
NtRp3315
(dp3316
g8
g3314
sg9
V00000
p3317
sg11
V00000
p3318
sg13
V00000
p3319
sg15
g426
sg17
V00000
p3320
sbsV#06 BRENT LO
p3321
g3
(g4
g5
NtRp3322
(dp3323
g8
g3321
sg9
V00000
p3324
sg11
V00100
p3325
sg13
V30000
p3326
sg15
g178
sg17
V02000
p3327
sbs.