(lp1
S'/teams/events/match_report/?EventGameId=NboGG%2boOaqUgXt0IRWZeMq8lfdx%2fRfwwOa9dfBGgORg%3d'
p2
aS'/teams/events/match_report/?EventGameId=RGe8aWakUItXDFKYVqsv1mvQqnT44Fq1ZKWjwiu7v20%3d'
p3
aS'/teams/events/match_report/?EventGameId=rF7Kl9z3npBYT6Ltyrkt8vS20RqHpbAW0azqTy5hw1o%3d'
p4
aS'/teams/events/match_report/?EventGameId=F0cgB09w6sabnil9OBwB3JtaWtzT5oJtQ9TwS60qGK4%3d'
p5
aS'/teams/events/match_report/?EventGameId=dx2L4yYEcOi1Mio5w9mDlloOWdCmsmM2ONskjCOxmFw%3d'
p6
aS'/teams/events/match_report/?EventGameId=nGHEWjYJauSuaUzTV8iu3I39J7zuHYYPtPh1j2PAcdw%3d'
p7
aS'/teams/events/match_report/?EventGameId=v%2fBqtNSobBj%2bmIozitgnCAtyh%2fGuXVh0hrworpEZ6uQ%3d'
p8
aS'/teams/events/match_report/?EventGameId=zQHvrMbH0VbsmWl%2fYobzaH6WArUCFvp28TB8Sj9F794%3d'
p9
aS'/teams/events/match_report/?EventGameId=qhitqYDjrkN5dSgToUKV0h3HemTh3WKvM2Iz1Oz7A18%3d'
p10
aS'/teams/events/match_report/?EventGameId=YIkE4fxntWbOu2RlCmcFrOXUAoWiwNHDfkQvWbGbFeo%3d'
p11
aS'/teams/events/match_report/?EventGameId=TwckCBe6pjFtPhVRYxhykVAiv1WjOwSce8AMlw2MTJ0%3d'
p12
aS'/teams/events/match_report/?EventGameId=J%2fqVKwrjKgPTDImgPlNfz9kwR3qjLeYvtS%2fzfHb7izg%3d'
p13
aS'/teams/events/match_report/?EventGameId=y%2bZZebLg%2btJj29vGpRoxlVBHtD7VtbolNCpha0qSpxU%3d'
p14
aS'/teams/events/match_report/?EventGameId=TRpN42L8YZ1w9rlVYeZpDFbUDxsaeLZOC4r0l6Se5m4%3d'
p15
aS'/teams/events/match_report/?EventGameId=7A7z%2f%2frlakZm34B37fB0BHi4WX1URR4sKHd9niu6beU%3d'
p16
aS'/teams/events/match_report/?EventGameId=%2bpYqLOs%2bLvx8eJO4L78mTUhU7%2fEWqWKFU%2bYUc82z1e8%3d'
p17
aS'/teams/events/match_report/?EventGameId=bjQHhJRBXpWEdSPDk5C3gYImJUBtXm68S7zgt8rz64w%3d'
p18
aS'/teams/events/match_report/?EventGameId=NiqeUJf5fnixxTLDRZ3U3LhXWBONqfUkoJWRAjN5rjw%3d'
p19
aS'/teams/events/match_report/?EventGameId=AqSY6nwDI06ePZ5NU0EdRkbJnONLDmlyJLp8TJ0sppA%3d'
p20
aS'/teams/events/match_report/?EventGameId=%2bfYH2FegURBLTTw0XcJR3XnsVyxVDZWzVfvESKPNE%2fM%3d'
p21
aS'/teams/events/match_report/?EventGameId=DClQY99QTof8NL7UWozAW%2bukVEDkHu2hzh%2fqVs3%2fx9E%3d'
p22
aS'/teams/events/match_report/?EventGameId=1ygx%2frUi1W%2fpHgHXGd3XiXB1FUfOirXVkZ3VrjggEBE%3d'
p23
aS'/teams/events/match_report/?EventGameId=t8bzsOYLqS5mqSUOq3hx5ey5dsQ0Nnl1%2fnKDGPusiww%3d'
p24
aS'/teams/events/match_report/?EventGameId=QhaWybJzHTm%2bGm1jjmhsdAjK96HI1Ascr%2bHY3oSJR2E%3d'
p25
aS'/teams/events/match_report/?EventGameId=EzrGF9unOdcGyOS0zjlFahyiRff6ioNm%2fmHlbc2X6dM%3d'
p26
aS'/teams/events/match_report/?EventGameId=IMJXhKG3m7CDb9DZ3JDbGRLykY1h5afaFCS7EzvvKXM%3d'
p27
aS'/teams/events/match_report/?EventGameId=fmADrKzq6qEI1pEi1WxtTJ2fveY3HZANTTOitqD68Ow%3d'
p28
aS'/teams/events/match_report/?EventGameId=THeLtiO0W2FS8yblbvj6tXh%2fpg85CL3GeV4VUPjJftM%3d'
p29
aS'/teams/events/match_report/?EventGameId=akeZCObe96Mh8X%2bFkUHstlxV1nRighIb6W2vFY2IpH0%3d'
p30
aS'/teams/events/match_report/?EventGameId=JV8fozcLquvi4qjDUDkjcABt6jqSU7BR%2bLPiaS9u2Ic%3d'
p31
aS'/teams/events/match_report/?EventGameId=sjDWVh9uOtanjVk7H4gTdVqT7EbqpVyBWZPj7IP4WBA%3d'
p32
aS'/teams/events/match_report/?EventGameId=WJKwgEpMSX%2fRx%2b4dNyDQlaaahPdfM%2foolcuiuQdZT4E%3d'
p33
aS'/teams/events/match_report/?EventGameId=Khhl8Jp25rDnhRxZzMFew3xOF%2bNRxoGTMq%2fhgtRgFcY%3d'
p34
aS'/teams/events/match_report/?EventGameId=QGdizx74Fd8Qp5jrBAYIEQtkWYf0xw%2bCG%2fae3WVDaP4%3d'
p35
aS'/teams/events/match_report/?EventGameId=IAvzZ2%2bVKQydlOpFA3xYFGMt0NGE0fZhHc6zGfvyIQI%3d'
p36
aS'/teams/events/match_report/?EventGameId=X3lndg2MHRTZlqTzyH6BAFZWdVg%2bb5IsUmL25B8YJ0Q%3d'
p37
aS'/teams/events/match_report/?EventGameId=MTY9vWGV8pWWE1eubeok5v3QNM%2fGKPnZujlKneyS6Is%3d'
p38
aS'/teams/events/match_report/?EventGameId=pO%2f%2fiCLhB1MeI4MH8VLMsFq4JC8gofydDV6thdksGK8%3d'
p39
aS'/teams/events/match_report/?EventGameId=b2uAZxUwZooRiBZih4lVUGfLA0YIgyjIxqazzK02DcQ%3d'
p40
aS'/teams/events/match_report/?EventGameId=2wp4lajnWXi%2fxLK%2bUXPTeH9Yq%2fplwBTLW7cVOh8kKQI%3d'
p41
aS'/teams/events/match_report/?EventGameId=WOOQxP%2be2aYQrSBFIsNXf51urWmZkwgT1Wx6tKLEJNw%3d'
p42
aS'/teams/events/match_report/?EventGameId=5fol07EV08f5QRHs3oPCODh01RY7DHrju66jhngUTFE%3d'
p43
aS'/teams/events/match_report/?EventGameId=mKNUYCGAUu94NpaQ36nvejnxtaMFjrYg6sC%2foJ4E2t4%3d'
p44
aS'/teams/events/match_report/?EventGameId=qL4WlVt3LbxcLwMLxUlMZa7socHMQO8y3Ar3Q6g9TeI%3d'
p45
aS'/teams/events/match_report/?EventGameId=itrPm2zqKd0wnXqoAcsUZ1kg%2bL4gwTOv2LLojY%2bTUOM%3d'
p46
aS'/teams/events/match_report/?EventGameId=w11qEF35xCXGXmKdELP57Sb4d53CfHJm5iqFp40EvaY%3d'
p47
aS'/teams/events/match_report/?EventGameId=s7CZqYzz0t96XKANekxaNXQZU2kVrVnI8KHd%2bpuZqVc%3d'
p48
aS'/teams/events/match_report/?EventGameId=15awQ%2f%2fByuUz9cErkhgtDAoG3XAdi5iPDfp5q53KlJo%3d'
p49
aS'/teams/events/match_report/?EventGameId=T9a0xwVf8jJ1fFEGaMsJYcGAwdPoR24oHVATJwdhoNc%3d'
p50
aS'/teams/events/match_report/?EventGameId=GL7ScDP7ksmS9TWG%2b%2fpPIdWOohtSrpnYHQaoH7sZpNI%3d'
p51
aS'/teams/events/match_report/?EventGameId=HP0G%2frdSOBroJtby%2bT5vNmlE4UwEGwNf1lOYZC1g6VM%3d'
p52
aS'/teams/events/match_report/?EventGameId=NlJHNxnrFp2O%2fsTlhrbl4kWp7WqBGWKhXOSgqBfXw%2b0%3d'
p53
aS'/teams/events/match_report/?EventGameId=MuA18VYetCJoj7WTCxRnICtEbpux04RcO5mO40EwfmA%3d'
p54
aS'/teams/events/match_report/?EventGameId=nAqT2M3jLbtyteaODJvLs%2fArO9TEQEVQb%2bws8YS3Woo%3d'
p55
aS'/teams/events/match_report/?EventGameId=AurjeUMIKoR3ZUS5jkwcAyuX7kySVF3xx5uUOzVd7Qg%3d'
p56
a.